	.file	"attimer.cpp"
__SP_H__ = 0x3e
__SP_L__ = 0x3d
__SREG__ = 0x3f
__tmp_reg__ = 0
__zero_reg__ = 1
	.text
.Ltext0:
	.cfi_sections	.debug_frame
	.section	.text._ZN7ATTimerC2Ev,"ax",@progbits
.global	_ZN7ATTimerC2Ev
	.type	_ZN7ATTimerC2Ev, @function
_ZN7ATTimerC2Ev:
.LFB3:
	.file 1 "../attimer.cpp"
	.loc 1 35 0
	.cfi_startproc
.LVL0:
/* prologue: function */
/* frame size = 0 */
/* stack size = 0 */
.L__stack_usage = 0
	movw r30,r24
.LBB2:
	.loc 1 37 0
	lds r24,_ZN7ATTimer8instanceE
.LVL1:
	subi r24,lo8(-(1))
	sts _ZN7ATTimer8instanceE,r24
	.loc 1 38 0
	std Z+8,r24
	.loc 1 40 0
	st Z,__zero_reg__
	std Z+1,__zero_reg__
	std Z+2,__zero_reg__
	std Z+3,__zero_reg__
	std Z+4,__zero_reg__
	std Z+5,__zero_reg__
	std Z+6,__zero_reg__
	std Z+7,__zero_reg__
	ret
.LBE2:
	.cfi_endproc
.LFE3:
	.size	_ZN7ATTimerC2Ev, .-_ZN7ATTimerC2Ev
.global	_ZN7ATTimerC1Ev
	.set	_ZN7ATTimerC1Ev,_ZN7ATTimerC2Ev
	.section	.text._ZN7ATTimerD2Ev,"ax",@progbits
.global	_ZN7ATTimerD2Ev
	.type	_ZN7ATTimerD2Ev, @function
_ZN7ATTimerD2Ev:
.LFB6:
	.loc 1 43 0
	.cfi_startproc
.LVL2:
/* prologue: function */
/* frame size = 0 */
/* stack size = 0 */
.L__stack_usage = 0
	ret
	.cfi_endproc
.LFE6:
	.size	_ZN7ATTimerD2Ev, .-_ZN7ATTimerD2Ev
.global	_ZN7ATTimerD1Ev
	.set	_ZN7ATTimerD1Ev,_ZN7ATTimerD2Ev
	.section	.text._ZN7ATTimer6udelayEm,"ax",@progbits
.global	_ZN7ATTimer6udelayEm
	.type	_ZN7ATTimer6udelayEm, @function
_ZN7ATTimer6udelayEm:
.LFB10:
	.loc 1 100 0
	.cfi_startproc
.LVL3:
/* prologue: function */
/* frame size = 0 */
/* stack size = 0 */
.L__stack_usage = 0
.LBB3:
	.loc 1 103 0
	movw r18,r22
	andi r18,7
	clr r19
.LVL4:
	.loc 1 106 0
	movw r20,r22
	movw r22,r24
	ldi r24,3
	1:
	lsr r23
	ror r22
	ror r21
	ror r20
	dec r24
	brne 1b
.LVL5:
.L5:
	.loc 1 109 0 discriminator 1
	cpi r20,-15
	cpc r21,__zero_reg__
	cpc r22,__zero_reg__
	cpc r23,__zero_reg__
	brlo .L15
	.loc 1 110 0
	in r25,0x2f
.LVL6:
.L7:
	.loc 1 111 0 discriminator 1
	in r24,0x2f
	sub r24,r25
	cpi r24,lo8(-16)
	brlo .L7
	.loc 1 112 0
	in r24,0x2f
	sub r24,r25
	sub r20,r24
	sbc r21,__zero_reg__
	sbc r22,__zero_reg__
	sbc r23,__zero_reg__
.LVL7:
	rjmp .L5
.LVL8:
.L15:
	.loc 1 115 0
	tst r20
	breq .L9
	.loc 1 116 0
	in r25,0x2f
.LVL9:
.L10:
	.loc 1 117 0 discriminator 1
	in r24,0x2f
	sub r24,r25
	cp r24,r20
	brlo .L10
.LVL10:
.L9:
.LBE3:
	.loc 1 122 0
	movw r24,r18
	ret
	.cfi_endproc
.LFE10:
	.size	_ZN7ATTimer6udelayEm, .-_ZN7ATTimer6udelayEm
	.section	.text._ZN7ATTimer8baseTimeEv,"ax",@progbits
.global	_ZN7ATTimer8baseTimeEv
	.type	_ZN7ATTimer8baseTimeEv, @function
_ZN7ATTimer8baseTimeEv:
.LFB11:
	.loc 1 125 0
	.cfi_startproc
.LVL11:
	push r10
.LCFI0:
	.cfi_def_cfa_offset 3
	.cfi_offset 10, -2
	push r11
.LCFI1:
	.cfi_def_cfa_offset 4
	.cfi_offset 11, -3
	push r12
.LCFI2:
	.cfi_def_cfa_offset 5
	.cfi_offset 12, -4
	push r13
.LCFI3:
	.cfi_def_cfa_offset 6
	.cfi_offset 13, -5
	push r14
.LCFI4:
	.cfi_def_cfa_offset 7
	.cfi_offset 14, -6
	push r15
.LCFI5:
	.cfi_def_cfa_offset 8
	.cfi_offset 15, -7
	push r16
.LCFI6:
	.cfi_def_cfa_offset 9
	.cfi_offset 16, -8
	push r17
.LCFI7:
	.cfi_def_cfa_offset 10
	.cfi_offset 17, -9
	push r28
.LCFI8:
	.cfi_def_cfa_offset 11
	.cfi_offset 28, -10
	push r29
.LCFI9:
	.cfi_def_cfa_offset 12
	.cfi_offset 29, -11
/* prologue: function */
/* frame size = 0 */
/* stack size = 10 */
.L__stack_usage = 10
.LBB4:
	.loc 1 126 0
	in r24,0x2f
.LVL12:
	.loc 1 127 0
	lds r30,_ZN7ATTimer5btIdxE
	ldi r31,0
	ldi r25,3
	1:
	lsl r30
	rol r31
	dec r25
	brne 1b
	subi r30,lo8(-(_ZN7ATTimer10m_baseTimeE))
	sbci r31,hi8(-(_ZN7ATTimer10m_baseTimeE))
	ld r10,Z
	ldd r11,Z+1
	ldd r12,Z+2
	ldd r13,Z+3
	ldd r14,Z+4
	ldd r15,Z+5
	ldd r16,Z+6
	ldd r17,Z+7
.LVL13:
	.loc 1 126 0
	ldi r25,0
	ldi r26,0
	ldi r27,0
	ldi r18,3
	1:
	lsl r24
	rol r25
	rol r26
	rol r27
	dec r18
	brne 1b
.LVL14:
	.loc 1 128 0
	movw r18,r24
	movw r20,r26
	ldi r22,0
	ldi r23,0
	ldi r24,0
	ldi r25,0
	rcall __adddi3
/* epilogue start */
.LBE4:
	.loc 1 130 0
	pop r29
	pop r28
	pop r17
.LVL15:
	pop r16
	pop r15
	pop r14
	pop r13
	pop r12
	pop r11
	pop r10
	ret
	.cfi_endproc
.LFE11:
	.size	_ZN7ATTimer8baseTimeEv, .-_ZN7ATTimer8baseTimeEv
	.section	.text._ZN7ATTimer5resetEv,"ax",@progbits
.global	_ZN7ATTimer5resetEv
	.type	_ZN7ATTimer5resetEv, @function
_ZN7ATTimer5resetEv:
.LFB9:
	.loc 1 77 0
	.cfi_startproc
.LVL16:
	push r28
.LCFI10:
	.cfi_def_cfa_offset 3
	.cfi_offset 28, -2
	push r29
.LCFI11:
	.cfi_def_cfa_offset 4
	.cfi_offset 29, -3
/* prologue: function */
/* frame size = 0 */
/* stack size = 2 */
.L__stack_usage = 2
	movw r28,r24
.LBB5:
	.loc 1 78 0
	ldd r24,Y+8
.LVL17:
	cpi r24,lo8(1)
	breq .L18
	.loc 1 79 0
	movw r24,r28
	rcall _ZN7ATTimer8baseTimeEv
.LVL18:
	st Y,r18
	std Y+1,r19
	std Y+2,r20
	std Y+3,r21
	std Y+4,r22
	std Y+5,r23
	std Y+6,r24
	std Y+7,r25
	.loc 1 80 0
	rjmp .L17
.L18:
	.loc 1 83 0
	st Y,__zero_reg__
	std Y+1,__zero_reg__
	std Y+2,__zero_reg__
	std Y+3,__zero_reg__
	std Y+4,__zero_reg__
	std Y+5,__zero_reg__
	std Y+6,__zero_reg__
	std Y+7,__zero_reg__
	.loc 1 85 0
	in r25,__SREG__
.LVL19:
	.loc 1 86 0
/* #APP */
 ;  86 "../attimer.cpp" 1
	cli
 ;  0 "" 2
	.loc 1 88 0
/* #NOAPP */
	sts _ZN7ATTimer10m_baseTimeE,__zero_reg__
	sts _ZN7ATTimer10m_baseTimeE+1,__zero_reg__
	sts _ZN7ATTimer10m_baseTimeE+2,__zero_reg__
	sts _ZN7ATTimer10m_baseTimeE+3,__zero_reg__
	sts _ZN7ATTimer10m_baseTimeE+4,__zero_reg__
	sts _ZN7ATTimer10m_baseTimeE+5,__zero_reg__
	sts _ZN7ATTimer10m_baseTimeE+6,__zero_reg__
	sts _ZN7ATTimer10m_baseTimeE+7,__zero_reg__
	.loc 1 89 0
	sts _ZN7ATTimer10m_baseTimeE+8,__zero_reg__
	sts _ZN7ATTimer10m_baseTimeE+9,__zero_reg__
	sts _ZN7ATTimer10m_baseTimeE+10,__zero_reg__
	sts _ZN7ATTimer10m_baseTimeE+11,__zero_reg__
	sts _ZN7ATTimer10m_baseTimeE+12,__zero_reg__
	sts _ZN7ATTimer10m_baseTimeE+13,__zero_reg__
	sts _ZN7ATTimer10m_baseTimeE+14,__zero_reg__
	sts _ZN7ATTimer10m_baseTimeE+15,__zero_reg__
	.loc 1 91 0
	out 0x2f,__zero_reg__
	.loc 1 93 0
	in __tmp_reg__,0x38
	sbrs __tmp_reg__,2
	rjmp .L20
	.loc 1 94 0
	in r24,0x38
	andi r24,lo8(4)
	out 0x38,r24
.L20:
	.loc 1 96 0
	out __SREG__,r25
.LVL20:
.L17:
/* epilogue start */
.LBE5:
	.loc 1 97 0
	pop r29
	pop r28
.LVL21:
	ret
	.cfi_endproc
.LFE9:
	.size	_ZN7ATTimer5resetEv, .-_ZN7ATTimer5resetEv
	.section	.text._ZN7ATTimer5beginEv,"ax",@progbits
.global	_ZN7ATTimer5beginEv
	.type	_ZN7ATTimer5beginEv, @function
_ZN7ATTimer5beginEv:
.LFB8:
	.loc 1 48 0
	.cfi_startproc
.LVL22:
	push r17
.LCFI12:
	.cfi_def_cfa_offset 3
	.cfi_offset 17, -2
	push r28
.LCFI13:
	.cfi_def_cfa_offset 4
	.cfi_offset 28, -3
	push r29
.LCFI14:
	.cfi_def_cfa_offset 5
	.cfi_offset 29, -4
/* prologue: function */
/* frame size = 0 */
/* stack size = 3 */
.L__stack_usage = 3
	movw r28,r24
.LBB6:
	.loc 1 49 0
	ldd r24,Y+8
.LVL23:
	cpi r24,lo8(1)
	breq .L25
	.loc 1 50 0
	movw r24,r28
	rcall _ZN7ATTimer8baseTimeEv
.LVL24:
	st Y,r18
	std Y+1,r19
	std Y+2,r20
	std Y+3,r21
	std Y+4,r22
	std Y+5,r23
	std Y+6,r24
	std Y+7,r25
	.loc 1 51 0
	rjmp .L24
.L25:
	.loc 1 56 0
/* #APP */
 ;  56 "../attimer.cpp" 1
	sei
 ;  0 "" 2
	.loc 1 58 0
/* #NOAPP */
	in r17,__SREG__
.LVL25:
	.loc 1 59 0
/* #APP */
 ;  59 "../attimer.cpp" 1
	cli
 ;  0 "" 2
	.loc 1 62 0
/* #NOAPP */
	in r24,0x39
	andi r24,lo8(-5)
	out 0x39,r24
	.loc 1 64 0
	ldi r24,lo8(8)
	out 0x30,r24
	.loc 1 65 0
/* #APP */
 ;  65 "../attimer.cpp" 1
	nop
 ;  0 "" 2
	.loc 1 67 0
/* #NOAPP */
	in r24,0x39
	ori r24,lo8(4)
	out 0x39,r24
	.loc 1 68 0
/* #APP */
 ;  68 "../attimer.cpp" 1
	nop
 ;  0 "" 2
	.loc 1 70 0
/* #NOAPP */
	movw r24,r28
	rcall _ZN7ATTimer5resetEv
.LVL26:
	.loc 1 72 0
	out __SREG__,r17
.LVL27:
.L24:
/* epilogue start */
.LBE6:
	.loc 1 74 0
	pop r29
	pop r28
.LVL28:
	pop r17
	ret
	.cfi_endproc
.LFE8:
	.size	_ZN7ATTimer5beginEv, .-_ZN7ATTimer5beginEv
	.section	.text._ZN7ATTimer5uTickEv,"ax",@progbits
.global	_ZN7ATTimer5uTickEv
	.type	_ZN7ATTimer5uTickEv, @function
_ZN7ATTimer5uTickEv:
.LFB12:
	.loc 1 132 0
	.cfi_startproc
.LVL29:
/* prologue: function */
/* frame size = 0 */
/* stack size = 0 */
.L__stack_usage = 0
	.loc 1 132 0
	ldi r22,lo8(8)
	ldi r23,0
	ldi r24,0
	ldi r25,0
	ret
	.cfi_endproc
.LFE12:
	.size	_ZN7ATTimer5uTickEv, .-_ZN7ATTimer5uTickEv
	.section	.text.__vector_4,"ax",@progbits
.global	__vector_4
	.type	__vector_4, @function
__vector_4:
.LFB14:
	.loc 1 144 0
	.cfi_startproc
	push r1
.LCFI15:
	.cfi_def_cfa_offset 3
	.cfi_offset 1, -2
	push r0
.LCFI16:
	.cfi_def_cfa_offset 4
	.cfi_offset 0, -3
	in r0,__SREG__
	push r0
	clr __zero_reg__
	push r18
.LCFI17:
	.cfi_def_cfa_offset 5
	.cfi_offset 18, -4
	push r19
.LCFI18:
	.cfi_def_cfa_offset 6
	.cfi_offset 19, -5
	push r20
.LCFI19:
	.cfi_def_cfa_offset 7
	.cfi_offset 20, -6
	push r21
.LCFI20:
	.cfi_def_cfa_offset 8
	.cfi_offset 21, -7
	push r22
.LCFI21:
	.cfi_def_cfa_offset 9
	.cfi_offset 22, -8
	push r23
.LCFI22:
	.cfi_def_cfa_offset 10
	.cfi_offset 23, -9
	push r24
.LCFI23:
	.cfi_def_cfa_offset 11
	.cfi_offset 24, -10
	push r25
.LCFI24:
	.cfi_def_cfa_offset 12
	.cfi_offset 25, -11
	push r26
.LCFI25:
	.cfi_def_cfa_offset 13
	.cfi_offset 26, -12
	push r30
.LCFI26:
	.cfi_def_cfa_offset 14
	.cfi_offset 30, -13
	push r31
.LCFI27:
	.cfi_def_cfa_offset 15
	.cfi_offset 31, -14
/* prologue: Signal */
/* frame size = 0 */
/* stack size = 14 */
.L__stack_usage = 14
.LVL30:
.LBB10:
.LBB11:
	.loc 1 137 0
	lds r30,_ZN7ATTimer5btIdxE
	ldi r31,0
	ldi r19,3
	1:
	lsl r30
	rol r31
	dec r19
	brne 1b
	subi r30,lo8(-(_ZN7ATTimer10m_baseTimeE))
	sbci r31,hi8(-(_ZN7ATTimer10m_baseTimeE))
	ld r18,Z
	ldd r19,Z+1
	ldd r20,Z+2
	ldd r21,Z+3
	ldd r22,Z+4
	ldd r23,Z+5
	ldd r24,Z+6
	ldd r25,Z+7
.LVL31:
	.loc 1 138 0
	subi r19,-8
	sbci r20,-1
	sbci r21,-1
	sbci r22,-1
	sbci r23,-1
	sbci r24,-1
	sbci r25,-1
.LVL32:
	.loc 1 139 0
	lds r30,_ZN7ATTimer5btIdxE
	ldi r26,lo8(1)
	eor r30,r26
	ldi r31,0
	lsl r30
	rol r31
	lsl r30
	rol r31
	lsl r30
	rol r31
	subi r30,lo8(-(_ZN7ATTimer10m_baseTimeE))
	sbci r31,hi8(-(_ZN7ATTimer10m_baseTimeE))
	st Z,r18
	std Z+1,r19
	std Z+2,r20
	std Z+3,r21
	std Z+4,r22
	std Z+5,r23
	std Z+6,r24
	std Z+7,r25
	.loc 1 140 0
	lds r24,_ZN7ATTimer5btIdxE
.LVL33:
	eor r24,r26
	sts _ZN7ATTimer5btIdxE,r24
/* epilogue start */
.LBE11:
.LBE10:
	.loc 1 146 0
	pop r31
	pop r30
	pop r26
	pop r25
	pop r24
	pop r23
	pop r22
	pop r21
	pop r20
	pop r19
	pop r18
	pop r0
	out __SREG__,r0
	pop r0
	pop r1
	reti
	.cfi_endproc
.LFE14:
	.size	__vector_4, .-__vector_4
.global	_ZN7ATTimer10m_baseTimeE
	.section	.bss._ZN7ATTimer10m_baseTimeE,"aw",@nobits
	.type	_ZN7ATTimer10m_baseTimeE, @object
	.size	_ZN7ATTimer10m_baseTimeE, 16
_ZN7ATTimer10m_baseTimeE:
	.zero	16
.global	_ZN7ATTimer5btIdxE
	.section	.bss._ZN7ATTimer5btIdxE,"aw",@nobits
	.type	_ZN7ATTimer5btIdxE, @object
	.size	_ZN7ATTimer5btIdxE, 1
_ZN7ATTimer5btIdxE:
	.zero	1
.global	_ZN7ATTimer8instanceE
	.section	.bss._ZN7ATTimer8instanceE,"aw",@nobits
	.type	_ZN7ATTimer8instanceE, @object
	.size	_ZN7ATTimer8instanceE, 1
_ZN7ATTimer8instanceE:
	.zero	1
	.text
.Letext0:
	.file 2 "../include/h_types.h"
	.file 3 "../attimer.h"
	.file 4 "../include/reg/regtim85.h"