	.file	"circbuff.cpp"
__SP_H__ = 0x3e
__SP_L__ = 0x3d
__SREG__ = 0x3f
__tmp_reg__ = 0
__zero_reg__ = 1
	.text
.Ltext0:
	.cfi_sections	.debug_frame
	.section	.text._ZN14CircularBufferC2EPch,"ax",@progbits
.global	_ZN14CircularBufferC2EPch
	.type	_ZN14CircularBufferC2EPch, @function
_ZN14CircularBufferC2EPch:
.LFB9:
	.file 1 "../circbuff.cpp"
	.loc 1 61 0
	.cfi_startproc
.LVL0:
/* prologue: function */
/* frame size = 0 */
/* stack size = 0 */
.L__stack_usage = 0
	movw r30,r24
.LBB11:
	.loc 1 62 0
	std Z+1,__zero_reg__
	std Z+2,__zero_reg__
	std Z+4,r23
	std Z+3,r22
	std Z+5,__zero_reg__
	std Z+6,__zero_reg__
.LVL1:
.LBB12:
.LBB13:
	.file 2 "../circbuff.h"
	.loc 2 189 0
	ldi r24,lo8(-128)
.LVL2:
.L8:
	.loc 2 191 0
	st Z,r24
	.loc 2 190 0
	ld r24,Z
	tst r24
	breq .L1
	mov r25,r20
	and r25,r24
	brne .L1
	.loc 2 191 0
	ldi r25,0
	asr r25
	ror r24
	rjmp .L8
.L1:
	ret
.LBE13:
.LBE12:
.LBE11:
	.cfi_endproc
.LFE9:
	.size	_ZN14CircularBufferC2EPch, .-_ZN14CircularBufferC2EPch
.global	_ZN14CircularBufferC1EPch
	.set	_ZN14CircularBufferC1EPch,_ZN14CircularBufferC2EPch
	.section	.text._ZN14CircularBufferD2Ev,"ax",@progbits
.global	_ZN14CircularBufferD2Ev
	.type	_ZN14CircularBufferD2Ev, @function
_ZN14CircularBufferD2Ev:
.LFB12:
	.loc 1 71 0
	.cfi_startproc
.LVL3:
/* prologue: function */
/* frame size = 0 */
/* stack size = 0 */
.L__stack_usage = 0
	ret
	.cfi_endproc
.LFE12:
	.size	_ZN14CircularBufferD2Ev, .-_ZN14CircularBufferD2Ev
.global	_ZN14CircularBufferD1Ev
	.set	_ZN14CircularBufferD1Ev,_ZN14CircularBufferD2Ev
	.section	.text._ZN14CircularBuffer7getByteEv,"ax",@progbits
.global	_ZN14CircularBuffer7getByteEv
	.type	_ZN14CircularBuffer7getByteEv, @function
_ZN14CircularBuffer7getByteEv:
.LFB14:
	.loc 1 84 0
	.cfi_startproc
.LVL4:
/* prologue: function */
/* frame size = 0 */
/* stack size = 0 */
.L__stack_usage = 0
	.loc 1 84 0
	movw r30,r24
.LBB14:
	.loc 1 85 0
	ldd r25,Z+1
	ldd r24,Z+2
.LVL5:
	cpse r25,r24
	rjmp .L13
	.loc 1 85 0 is_stmt 0 discriminator 1
	ldd r24,Z+5
	cpse r24,__zero_reg__
	rjmp .L13
	.loc 1 86 0 is_stmt 1
	ldi r24,lo8(-1)
	ldi r25,lo8(-1)
	ret
.L13:
	.loc 1 87 0
	ldd r24,Z+1
	ldd r26,Z+3
	ldd r27,Z+4
	add r26,r24
	adc r27,__zero_reg__
	ld r24,X
.LVL6:
	.loc 1 89 0
	ldd r18,Z+1
.LVL7:
	ld r25,Z
	subi r25,lo8(-(-1))
	subi r18,lo8(-(1))
	and r25,r18
	std Z+1,r25
	.loc 1 93 0
	std Z+5,__zero_reg__
	.loc 1 94 0
	ldi r25,0
.LBE14:
	.loc 1 95 0
	ret
	.cfi_endproc
.LFE14:
	.size	_ZN14CircularBuffer7getByteEv, .-_ZN14CircularBuffer7getByteEv
	.section	.text._ZN14CircularBuffer7getDataEPch,"ax",@progbits
.global	_ZN14CircularBuffer7getDataEPch
	.type	_ZN14CircularBuffer7getDataEPch, @function
_ZN14CircularBuffer7getDataEPch:
.LFB15:
	.loc 1 98 0
	.cfi_startproc
.LVL8:
	push r12
.LCFI0:
	.cfi_def_cfa_offset 3
	.cfi_offset 12, -2
	push r13
.LCFI1:
	.cfi_def_cfa_offset 4
	.cfi_offset 13, -3
	push r14
.LCFI2:
	.cfi_def_cfa_offset 5
	.cfi_offset 14, -4
	push r15
.LCFI3:
	.cfi_def_cfa_offset 6
	.cfi_offset 15, -5
	push r16
.LCFI4:
	.cfi_def_cfa_offset 7
	.cfi_offset 16, -6
	push r17
.LCFI5:
	.cfi_def_cfa_offset 8
	.cfi_offset 17, -7
	push r28
.LCFI6:
	.cfi_def_cfa_offset 9
	.cfi_offset 28, -8
	push r29
.LCFI7:
	.cfi_def_cfa_offset 10
	.cfi_offset 29, -9
	push __zero_reg__
.LCFI8:
	.cfi_def_cfa_offset 11
	in r28,__SP_L__
	in r29,__SP_H__
.LCFI9:
	.cfi_def_cfa_register 28
/* prologue: function */
/* frame size = 1 */
/* stack size = 9 */
.L__stack_usage = 9
	movw r16,r24
.LVL9:
	mov r14,r22
.LBB19:
	.loc 1 100 0
	movw r12,r22
.LVL10:
.L20:
	mov r15,r12
	sub r15,r14
.LVL11:
	.loc 1 100 0 is_stmt 0 discriminator 1
	cp r15,r20
	brsh .L17
.LVL12:
.LBB20:
.LBB21:
	.loc 2 96 0 is_stmt 1 discriminator 1
	movw r24,r16
	std Y+1,r20
	rcall _ZN14CircularBuffer7getByteEv
.LVL13:
	movw r18,r24
.LVL14:
	ldd r20,Y+1
	sbrs r25,7
	rjmp .L19
	.loc 2 96 0 is_stmt 0
	movw r30,r12
	ld r24,Z
.L19:
	movw r30,r12
	st Z+,r24
	movw r12,r30
.LVL15:
.LBE21:
.LBE20:
	.loc 1 100 0 is_stmt 1
	sbrs r19,7
	rjmp .L20
.LVL16:
.L17:
.LBE19:
	.loc 1 104 0
	mov r24,r15
/* epilogue start */
	pop __tmp_reg__
	pop r29
	pop r28
	pop r17
	pop r16
.LVL17:
	pop r15
.LVL18:
	pop r14
	pop r13
	pop r12
	ret
	.cfi_endproc
.LFE15:
	.size	_ZN14CircularBuffer7getDataEPch, .-_ZN14CircularBuffer7getDataEPch
	.section	.text._ZN14CircularBuffer7putByteEcb,"ax",@progbits
.global	_ZN14CircularBuffer7putByteEcb
	.type	_ZN14CircularBuffer7putByteEcb, @function
_ZN14CircularBuffer7putByteEcb:
.LFB16:
	.loc 1 107 0
	.cfi_startproc
.LVL19:
/* prologue: function */
/* frame size = 0 */
/* stack size = 0 */
.L__stack_usage = 0
	movw r30,r24
.LBB22:
	.loc 1 108 0
	ldd r25,Z+5
.LVL20:
	.loc 1 111 0
	cpse r20,__zero_reg__
	rjmp .L22
	.loc 1 111 0 is_stmt 0 discriminator 1
	cpse r25,__zero_reg__
	rjmp .L23
.L22:
	.loc 1 113 0 is_stmt 1
	ldd r24,Z+2
.LVL21:
	ldd r26,Z+3
	ldd r27,Z+4
	add r26,r24
	adc r27,__zero_reg__
	st X,r22
	.loc 1 115 0
	ldd r18,Z+2
.LVL22:
	ld r24,Z
	subi r24,lo8(-(-1))
	subi r18,lo8(-(1))
	and r24,r18
	std Z+2,r24
	.loc 1 120 0
	tst r25
	breq .L23
	.loc 1 121 0
	ldi r24,lo8(1)
	std Z+6,r24
	.loc 1 122 0
	std Z+5,__zero_reg__
.LVL23:
.L23:
	.loc 1 127 0
	ldd r18,Z+2
	ldd r24,Z+1
	cpse r18,r24
	rjmp .L25
	.loc 1 128 0
	ldi r24,lo8(1)
	std Z+5,r24
.L25:
	.loc 1 131 0
	tst r25
	breq .L27
	.loc 1 131 0 is_stmt 0 discriminator 1
	tst r20
	breq .L28
	.loc 1 131 0
	ldi r24,lo8(-1)
	ldi r25,lo8(-1)
	ret
.L27:
	ldi r24,0
	ldi r25,0
	ret
.L28:
	ldi r24,lo8(-2)
	ldi r25,lo8(-1)
.LBE22:
	.loc 1 132 0 is_stmt 1
	ret
	.cfi_endproc
.LFE16:
	.size	_ZN14CircularBuffer7putByteEcb, .-_ZN14CircularBuffer7putByteEcb
	.section	.text._ZN14CircularBuffer7putDataEPKchb,"ax",@progbits
.global	_ZN14CircularBuffer7putDataEPKchb
	.type	_ZN14CircularBuffer7putDataEPKchb, @function
_ZN14CircularBuffer7putDataEPKchb:
.LFB17:
	.loc 1 135 0
	.cfi_startproc
.LVL24:
	push r10
.LCFI10:
	.cfi_def_cfa_offset 3
	.cfi_offset 10, -2
	push r11
.LCFI11:
	.cfi_def_cfa_offset 4
	.cfi_offset 11, -3
	push r13
.LCFI12:
	.cfi_def_cfa_offset 5
	.cfi_offset 13, -4
	push r14
.LCFI13:
	.cfi_def_cfa_offset 6
	.cfi_offset 14, -5
	push r15
.LCFI14:
	.cfi_def_cfa_offset 7
	.cfi_offset 15, -6
	push r16
.LCFI15:
	.cfi_def_cfa_offset 8
	.cfi_offset 16, -7
	push r17
.LCFI16:
	.cfi_def_cfa_offset 9
	.cfi_offset 17, -8
	push r28
.LCFI17:
	.cfi_def_cfa_offset 10
	.cfi_offset 28, -9
	push r29
.LCFI18:
	.cfi_def_cfa_offset 11
	.cfi_offset 29, -10
	push __zero_reg__
.LCFI19:
	.cfi_def_cfa_offset 12
	in r28,__SP_L__
	in r29,__SP_H__
.LCFI20:
	.cfi_def_cfa_register 28
/* prologue: function */
/* frame size = 1 */
/* stack size = 10 */
.L__stack_usage = 10
	movw r16,r24
	mov r14,r20
.LVL25:
	mov r13,r22
.LBB23:
	.loc 1 138 0
	movw r10,r22
.LVL26:
.L38:
	mov r15,r10
	sub r15,r13
.LVL27:
	.loc 1 138 0 is_stmt 0 discriminator 1
	cp r15,r14
	brsh .L40
	movw r30,r10
	ld r22,Z+
	movw r10,r30
	mov r20,r18
	movw r24,r16
	std Y+1,r18
	rcall _ZN14CircularBuffer7putByteEcb
.LVL28:
	ldd r18,Y+1
	adiw r24,2
	brne .L38
.L40:
.LBE23:
	.loc 1 142 0 is_stmt 1
	mov r24,r15
/* epilogue start */
	pop __tmp_reg__
	pop r29
	pop r28
	pop r17
	pop r16
.LVL29:
	pop r15
.LVL30:
	pop r14
.LVL31:
	pop r13
	pop r11
	pop r10
	ret
	.cfi_endproc
.LFE17:
	.size	_ZN14CircularBuffer7putDataEPKchb, .-_ZN14CircularBuffer7putDataEPKchb
	.text
.Letext0:
	.file 3 "../include/h_types.h"