	.file	"fnclib.c"
__SP_H__ = 0x3e
__SP_L__ = 0x3d
__SREG__ = 0x3f
__tmp_reg__ = 0
__zero_reg__ = 1
	.text
.Ltext0:
	.cfi_sections	.debug_frame
	.section	.text._memcpy,"ax",@progbits
.global	_memcpy
	.type	_memcpy, @function
_memcpy:
.LFB0:
	.file 1 "../fnclib.c"
	.loc 1 24 0
	.cfi_startproc
/* prologue: function */
/* frame size = 0 */
/* stack size = 0 */
.L__stack_usage = 0
.LVL0:
.L3:
	.loc 1 24 0 discriminator 1
	subi r20,1
	sbc r21,__zero_reg__
.LVL1:
	movw r30,r22
	add r30,r20
	adc r31,r21
	ld r18,Z
	movw r30,r24
	add r30,r20
	adc r31,r21
	st Z,r18
	cp r20,__zero_reg__
	cpc r21,__zero_reg__
	brne .L3
/* epilogue start */
	.loc 1 24 0 is_stmt 0
	ret
	.cfi_endproc
.LFE0:
	.size	_memcpy, .-_memcpy
	.section	.text._memset,"ax",@progbits
.global	_memset
	.type	_memset, @function
_memset:
.LFB1:
	.loc 1 26 0 is_stmt 1
	.cfi_startproc
/* prologue: function */
/* frame size = 0 */
/* stack size = 0 */
.L__stack_usage = 0
.LVL2:
.L7:
	.loc 1 26 0 discriminator 1
	subi r20,1
	sbc r21,__zero_reg__
.LVL3:
	movw r30,r24
	add r30,r20
	adc r31,r21
	st Z,r22
	cp r20,__zero_reg__
	cpc r21,__zero_reg__
	brne .L7
/* epilogue start */
	.loc 1 26 0 is_stmt 0
	ret
	.cfi_endproc
.LFE1:
	.size	_memset, .-_memset
	.section	.text._strcpy,"ax",@progbits
.global	_strcpy
	.type	_strcpy, @function
_strcpy:
.LFB2:
	.loc 1 29 0 is_stmt 1
	.cfi_startproc
.LVL4:
/* prologue: function */
/* frame size = 0 */
/* stack size = 0 */
.L__stack_usage = 0
	movw r26,r22
.LVL5:
	movw r30,r24
.LVL6:
.L10:
	.loc 1 32 0 discriminator 1
	ld r18,X+
.LVL7:
	st Z+,r18
.LVL8:
	.loc 1 34 0 discriminator 1
	ld r18,X
	cpse r18,__zero_reg__
	rjmp .L10
/* epilogue start */
	.loc 1 37 0
	ret
	.cfi_endproc
.LFE2:
	.size	_strcpy, .-_strcpy
	.section	.text._strlen,"ax",@progbits
.global	_strlen
	.type	_strlen, @function
_strlen:
.LFB3:
	.loc 1 40 0
	.cfi_startproc
.LVL9:
/* prologue: function */
/* frame size = 0 */
/* stack size = 0 */
.L__stack_usage = 0
	.loc 1 42 0
	movw r30,r24
.LVL10:
.L12:
	movw r18,r30
	sub r18,r24
	sbc r19,r25
.LVL11:
	.loc 1 42 0 is_stmt 0 discriminator 1
	ld r20,Z+
	cpse r20,__zero_reg__
	rjmp .L12
	.loc 1 45 0 is_stmt 1
	movw r24,r18
.LVL12:
	ret
	.cfi_endproc
.LFE3:
	.size	_strlen, .-_strlen
	.section	.text._strchr,"ax",@progbits
.global	_strchr
	.type	_strchr, @function
_strchr:
.LFB4:
	.loc 1 48 0
	.cfi_startproc
.LVL13:
/* prologue: function */
/* frame size = 0 */
/* stack size = 0 */
.L__stack_usage = 0
	movw r30,r24
.L15:
	movw r24,r30
.LVL14:
	.loc 1 49 0 discriminator 1
	ld r18,Z+
	tst r18
	breq .L18
	.loc 1 49 0 is_stmt 0 discriminator 2
	cpse r18,r22
	rjmp .L15
	ret
.L18:
	.loc 1 52 0 is_stmt 1
	ldi r24,0
.LVL15:
	ldi r25,0
	.loc 1 53 0
	ret
	.cfi_endproc
.LFE4:
	.size	_strchr, .-_strchr
	.section	.text._strcat,"ax",@progbits
.global	_strcat
	.type	_strcat, @function
_strcat:
.LFB5:
	.loc 1 56 0
	.cfi_startproc
.LVL16:
	push r16
.LCFI0:
	.cfi_def_cfa_offset 3
	.cfi_offset 16, -2
	push r17
.LCFI1:
	.cfi_def_cfa_offset 4
	.cfi_offset 17, -3
	push r28
.LCFI2:
	.cfi_def_cfa_offset 5
	.cfi_offset 28, -4
	push r29
.LCFI3:
	.cfi_def_cfa_offset 6
	.cfi_offset 29, -5
	rcall .
.LCFI4:
	.cfi_def_cfa_offset 8
	in r28,__SP_L__
	in r29,__SP_H__
.LCFI5:
	.cfi_def_cfa_register 28
/* prologue: function */
/* frame size = 2 */
/* stack size = 6 */
.L__stack_usage = 6
	movw r16,r24
	.loc 1 57 0
	std Y+1,r22
	std Y+2,r23
	rcall _strlen
.LVL17:
	ldd r22,Y+1
	ldd r23,Y+2
	add r24,r16
	adc r25,r17
/* epilogue start */
	.loc 1 58 0
	pop __tmp_reg__
	pop __tmp_reg__
	pop r29
	pop r28
	pop r17
	pop r16
.LVL18:
	.loc 1 57 0
	rjmp _strcpy
.LVL19:
	.cfi_endproc
.LFE5:
	.size	_strcat, .-_strcat
.global	__muldi3
	.section	.text._strntoll,"ax",@progbits
.global	_strntoll
	.type	_strntoll, @function
_strntoll:
.LFB6:
	.loc 1 61 0
	.cfi_startproc
.LVL20:
	push r2
.LCFI6:
	.cfi_def_cfa_offset 3
	.cfi_offset 2, -2
	push r3
.LCFI7:
	.cfi_def_cfa_offset 4
	.cfi_offset 3, -3
	push r4
.LCFI8:
	.cfi_def_cfa_offset 5
	.cfi_offset 4, -4
	push r5
.LCFI9:
	.cfi_def_cfa_offset 6
	.cfi_offset 5, -5
	push r6
.LCFI10:
	.cfi_def_cfa_offset 7
	.cfi_offset 6, -6
	push r7
.LCFI11:
	.cfi_def_cfa_offset 8
	.cfi_offset 7, -7
	push r8
.LCFI12:
	.cfi_def_cfa_offset 9
	.cfi_offset 8, -8
	push r9
.LCFI13:
	.cfi_def_cfa_offset 10
	.cfi_offset 9, -9
	push r10
.LCFI14:
	.cfi_def_cfa_offset 11
	.cfi_offset 10, -10
	push r11
.LCFI15:
	.cfi_def_cfa_offset 12
	.cfi_offset 11, -11
	push r12
.LCFI16:
	.cfi_def_cfa_offset 13
	.cfi_offset 12, -12
	push r13
.LCFI17:
	.cfi_def_cfa_offset 14
	.cfi_offset 13, -13
	push r14
.LCFI18:
	.cfi_def_cfa_offset 15
	.cfi_offset 14, -14
	push r15
.LCFI19:
	.cfi_def_cfa_offset 16
	.cfi_offset 15, -15
	push r16
.LCFI20:
	.cfi_def_cfa_offset 17
	.cfi_offset 16, -16
	push r17
.LCFI21:
	.cfi_def_cfa_offset 18
	.cfi_offset 17, -17
	push r28
.LCFI22:
	.cfi_def_cfa_offset 19
	.cfi_offset 28, -18
	push r29
.LCFI23:
	.cfi_def_cfa_offset 20
	.cfi_offset 29, -19
	in r28,__SP_L__
	in r29,__SP_H__
.LCFI24:
	.cfi_def_cfa_register 28
	sbiw r28,28
.LCFI25:
	.cfi_def_cfa_offset 48
	in __tmp_reg__,__SREG__
	cli
	out __SP_H__,r29
	out __SREG__,__tmp_reg__
	out __SP_L__,r28
/* prologue: function */
/* frame size = 28 */
/* stack size = 46 */
.L__stack_usage = 46
	movw r8,r24
	movw r2,r22
	movw r16,r20
.LVL21:
	.loc 1 66 0
	sbrs r23,7
	rjmp .L21
	.loc 1 67 0
	rcall _strlen
.LVL22:
	movw r2,r24
.LVL23:
.L21:
	.loc 1 70 0
	cp r2,__zero_reg__
	cpc r3,__zero_reg__
	brne .+2
	rjmp .L48
	movw r30,r8
	ldi r24,0
	ldi r25,0
.LVL24:
.L23:
	.loc 1 73 0 discriminator 1
	ld r18,Z+
	cpi r18,lo8(33)
	brlt .L24
.L27:
	.loc 1 77 0
	cp r24,r2
	cpc r25,r3
	brne .L61
	rjmp .L48
.L24:
	.loc 1 73 0 discriminator 2
	cp r24,r2
	cpc r25,r3
	brge .L27
	.loc 1 74 0
	adiw r24,1
.LVL25:
	rjmp .L23
.L61:
	.loc 1 80 0
	cpi r18,lo8(43)
	breq .L29
	cpi r18,lo8(45)
	brne .L62
.LVL26:
	.loc 1 81 0
	adiw r24,1
.LVL27:
	ldi r18,lo8(-1)
	std Y+18,r18
	ldi r19,lo8(-1)
	std Y+19,r19
	ldi r20,lo8(-1)
	std Y+20,r20
	ldi r21,lo8(-1)
	std Y+21,r21
	ldi r22,lo8(-1)
	std Y+22,r22
	ldi r23,lo8(-1)
	std Y+23,r23
	ldi r26,lo8(-1)
	std Y+24,r26
	ldi r27,lo8(-1)
	std Y+25,r27
	rjmp .L31
.LVL28:
.L29:
	.loc 1 82 0
	adiw r24,1
.LVL29:
	.loc 1 63 0
	ldi r30,lo8(1)
	std Y+18,r30
	std Y+19,__zero_reg__
	std Y+20,__zero_reg__
	std Y+21,__zero_reg__
	std Y+22,__zero_reg__
	std Y+23,__zero_reg__
	std Y+24,__zero_reg__
	std Y+25,__zero_reg__
.LVL30:
.L31:
	.loc 1 86 0
	cp r24,r2
	cpc r25,r3
	brne .L28
	rjmp .L48
.LVL31:
.L62:
	.loc 1 63 0
	ldi r31,lo8(1)
	std Y+18,r31
	std Y+19,__zero_reg__
	std Y+20,__zero_reg__
	std Y+21,__zero_reg__
	std Y+22,__zero_reg__
	std Y+23,__zero_reg__
	std Y+24,__zero_reg__
	std Y+25,__zero_reg__
.LVL32:
.L28:
	.loc 1 89 0
	cp r16,__zero_reg__
	cpc r17,__zero_reg__
	brne .L32
	.loc 1 90 0
	movw r30,r8
	add r30,r24
	adc r31,r25
	ld r18,Z
	cpi r18,lo8(48)
	breq .L33
	brge .L34
	cpi r18,lo8(42)
	brne .L49
	rjmp .L35
.L34:
	cpi r18,lo8(88)
	breq .L35
	cpi r18,lo8(120)
	brne .L49
	rjmp .L35
.L33:
.LVL33:
	.loc 1 92 0
	movw r18,r24
	subi r18,-1
	sbci r19,-1
.LVL34:
	.loc 1 93 0
	movw r30,r8
	add r30,r18
	adc r31,r19
	ld r20,Z
	cpi r20,lo8(120)
	brne .L50
.LVL35:
	.loc 1 94 0
	adiw r24,2
.LVL36:
	ldi r16,lo8(16)
	ldi r17,0
	rjmp .L32
.LVL37:
.L35:
	.loc 1 99 0
	ldd r18,Z+1
	clr r19
	sbrc r18,7
	com r19
	movw r16,r18
.LVL38:
	subi r16,48
	sbc r17,__zero_reg__
.LVL39:
	.loc 1 100 0
	cpi r16,10
	cpc r17,__zero_reg__
	brlo .L36
.LVL40:
	.loc 1 101 0
	subi r16,7
	sbc r17,__zero_reg__
	rjmp .L38
.LVL41:
.L36:
	.loc 1 102 0
	cp r16,__zero_reg__
	cpc r17,__zero_reg__
	brne .L38
.LVL42:
	.loc 1 103 0
	ldi r16,lo8(10)
	ldi r17,0
.LVL43:
.L38:
	.loc 1 104 0
	adiw r24,2
.LVL44:
	.loc 1 105 0
	rjmp .L32
.LVL45:
.L49:
	.loc 1 107 0
	ldi r16,lo8(10)
	ldi r17,0
.LVL46:
	rjmp .L32
.LVL47:
.L50:
	.loc 1 92 0
	movw r24,r18
	ldi r16,lo8(8)
	ldi r17,0
.LVL48:
.L32:
	movw r18,r8
	add r18,r24
	adc r19,r25
	std Y+12,r19
	std Y+11,r18
	.loc 1 107 0 discriminator 1
	ldi r30,0
	ldi r31,0
	std Y+26,__zero_reg__
	std Y+13,__zero_reg__
	std Y+14,__zero_reg__
	std Y+15,__zero_reg__
	std Y+16,__zero_reg__
	std Y+17,__zero_reg__
	.loc 1 125 0 discriminator 1
	movw r20,r16
	ldi r22,0
	ldi r23,0
	ldi r24,0
	ldi r25,0
	movw r26,r24
.LVL49:
	std Y+3,r16
	std Y+4,r21
	std Y+5,r22
	std Y+6,r23
	std Y+7,r24
	std Y+8,r25
	std Y+9,r26
	std Y+10,r27
.LVL50:
.L39:
	ldd r24,Y+11
	ldd r25,Y+12
	sub r24,r8
	sbc r25,r9
	.loc 1 112 0 discriminator 1
	cp r24,r2
	cpc r25,r3
	brge .L43
.LVL51:
	.loc 1 113 0
	ldd r26,Y+11
	ldd r27,Y+12
	ld r16,X+
	std Y+12,r27
	std Y+11,r26
.LVL52:
	mov r17,r16
	lsl r17
	sbc r17,r17
	mov r10,r17
	mov r11,r17
	mov r12,r17
	mov r13,r17
	mov r14,r17
	mov r15,r17
.LVL53:
	.loc 1 114 0
	movw r18,r16
	mov r20,r17
	mov r21,r17
	mov r22,r17
	mov r23,r17
	mov r24,r17
	mov r25,r17
	ldi r26,lo8(47)
.LVL54:
	rcall __cmpdi2_s8
	breq .+2
	brsh .L40
.LVL55:
.L43:
	.loc 1 130 0
	movw r10,r30
	ldd r12,Y+26
	ldd r13,Y+13
	ldd r14,Y+14
	ldd r15,Y+15
	ldd r16,Y+16
	ldd r17,Y+17
	ldd r18,Y+18
	ldd r19,Y+19
	ldd r20,Y+20
	ldd r21,Y+21
	ldd r22,Y+22
	ldd r23,Y+23
	ldd r24,Y+24
	ldd r25,Y+25
	rcall __muldi3
.LVL56:
	rjmp .L22
.LVL57:
.L40:
	.loc 1 116 0
	movw r18,r16
	mov r20,r17
	mov r21,r17
	mov r22,r17
	mov r23,r17
	mov r24,r17
	mov r25,r17
	ldi r26,lo8(-48)
	rcall __adddi3_s8
	movw r4,r18
	movw r6,r20
	std Y+1,r22
	std Y+2,r23
	std Y+28,r24
	std Y+27,r25
	ldi r26,lo8(9)
	rcall __cmpdi2_s8
	breq .L41
	brlo .L41
	.loc 1 119 0
	movw r18,r16
	mov r20,r17
	mov r21,r17
	mov r22,r17
	mov r23,r17
	mov r24,r17
	mov r25,r17
	ldi r26,lo8(90)
	rcall __cmpdi2_s8
	breq .L42
	brlo .L42
	.loc 1 120 0
	ldi r26,lo8(-32)
	rcall __adddi3_s8
	movw r16,r18
.LVL58:
	movw r10,r20
.LVL59:
	movw r12,r22
	movw r14,r24
.LVL60:
.L42:
	.loc 1 121 0
	movw r18,r16
	movw r20,r10
	movw r22,r12
	movw r24,r14
	ldi r26,lo8(-55)
	rcall __adddi3_s8
	movw r4,r18
	movw r6,r20
	std Y+1,r22
	std Y+2,r23
	std Y+28,r24
	std Y+27,r25
.LVL61:
	.loc 1 122 0
	ldi r26,lo8(9)
	rcall __cmpdi2_s8
	breq .+2
	brsh .+2
	rjmp .L43
.LVL62:
.L41:
	.loc 1 125 0
	movw r18,r4
	movw r20,r6
	ldd r22,Y+1
	ldd r23,Y+2
	ldd r24,Y+28
	ldd r25,Y+27
	ldd r10,Y+3
	ldd r11,Y+4
	mov r12,__zero_reg__
	mov r13,__zero_reg__
	mov r14,__zero_reg__
	mov r15,__zero_reg__
	ldi r16,0
	ldi r17,0
	rcall __cmpdi2
	brlo .+2
	rjmp .L43
	.loc 1 127 0
	movw r18,r30
	ldd r20,Y+26
	ldd r21,Y+13
	ldd r22,Y+14
	ldd r23,Y+15
	ldd r24,Y+16
	ldd r25,Y+17
	rcall __muldi3
.LVL63:
	movw r10,r18
	movw r12,r20
	movw r14,r22
	movw r16,r24
	movw r18,r4
	movw r20,r6
	ldd r22,Y+1
	ldd r23,Y+2
	ldd r24,Y+28
	ldd r25,Y+27
	rcall __adddi3
	movw r30,r18
	std Y+26,r20
	std Y+13,r21
	std Y+14,r22
	std Y+15,r23
	std Y+16,r24
	std Y+17,r25
.LVL64:
	rjmp .L39
.LVL65:
.L48:
	.loc 1 71 0
	ldi r18,0
	ldi r19,0
	ldi r20,0
	ldi r21,0
	ldi r22,0
	ldi r23,0
	ldi r24,0
	ldi r25,0
.LVL66:
.L22:
/* epilogue start */
	.loc 1 131 0
	adiw r28,28
	in __tmp_reg__,__SREG__
	cli
	out __SP_H__,r29
	out __SREG__,__tmp_reg__
	out __SP_L__,r28
	pop r29
	pop r28
	pop r17
	pop r16
	pop r15
	pop r14
	pop r13
	pop r12
	pop r11
	pop r10
	pop r9
	pop r8
.LVL67:
	pop r7
	pop r6
	pop r5
	pop r4
	pop r3
	pop r2
.LVL68:
	ret
	.cfi_endproc
.LFE6:
	.size	_strntoll, .-_strntoll
	.text
.Letext0:
	.file 2 "../include/h_types.h"