	.file	"sblk85.cpp"
__SP_H__ = 0x3e
__SP_L__ = 0x3d
__SREG__ = 0x3f
__tmp_reg__ = 0
__zero_reg__ = 1
	.text
.Ltext0:
	.cfi_sections	.debug_frame
	.section	.text._ZN3SPI12setByte2XmitEc,"axG",@progbits,_ZN3SPI12setByte2XmitEc,comdat
	.weak	_ZN3SPI12setByte2XmitEc
	.type	_ZN3SPI12setByte2XmitEc, @function
_ZN3SPI12setByte2XmitEc:
.LFB31:
	.file 1 "../spi.h"
	.loc 1 308 0
	.cfi_startproc
.LVL0:
/* prologue: function */
/* frame size = 0 */
/* stack size = 0 */
.L__stack_usage = 0
	.loc 1 308 0
	ldi r20,lo8(1)
	adiw r24,13
.LVL1:
	rjmp _ZN14CircularBuffer7putByteEcb
.LVL2:
	.cfi_endproc
.LFE31:
	.size	_ZN3SPI12setByte2XmitEc, .-_ZN3SPI12setByte2XmitEc
	.section	.text._Z5setupv,"ax",@progbits
.global	_Z5setupv
	.type	_Z5setupv, @function
_Z5setupv:
.LFB57:
	.file 2 "../sblk85.cpp"
	.loc 2 89 0
	.cfi_startproc
	push r12
.LCFI0:
	.cfi_def_cfa_offset 3
	.cfi_offset 12, -2
	push r13
.LCFI1:
	.cfi_def_cfa_offset 4
	.cfi_offset 13, -3
	push r14
.LCFI2:
	.cfi_def_cfa_offset 5
	.cfi_offset 14, -4
	push r16
.LCFI3:
	.cfi_def_cfa_offset 6
	.cfi_offset 16, -5
/* prologue: function */
/* frame size = 0 */
/* stack size = 4 */
.L__stack_usage = 4
.LBB12:
	.loc 2 93 0
	mov r12,__zero_reg__
	mov r13,__zero_reg__
	mov r14,__zero_reg__
	ldi r16,lo8(32)
	ldi r18,lo8(_ZZ5setupvE2tx)
	ldi r19,hi8(_ZZ5setupvE2tx)
	ldi r20,lo8(32)
	ldi r22,lo8(_ZZ5setupvE2rx)
	ldi r23,hi8(_ZZ5setupvE2rx)
	ldi r24,lo8(spi)
	ldi r25,hi8(spi)
	rcall _ZN3SPI5beginEPKvhS1_hbj
.LVL3:
	.loc 2 95 0
	sbi 0x17,4
	.loc 2 96 0
	cbi 0x18,4
	.loc 2 99 0
	sbi 0x17,4
	.loc 2 100 0
	cbi 0x18,4
	.loc 2 104 0
	cbi 0x17,3
	.loc 2 105 0
	sbi 0x18,3
	.loc 2 108 0
	ldi r24,lo8(timer)
	ldi r25,hi8(timer)
/* epilogue start */
.LBE12:
	.loc 2 109 0
	pop r16
	pop r14
	pop r13
	pop r12
.LBB13:
	.loc 2 108 0
	rjmp _ZN7ATTimer5beginEv
.LVL4:
.LBE13:
	.cfi_endproc
.LFE57:
	.size	_Z5setupv, .-_Z5setupv
	.section	.text._Z9toggleLedmi,"ax",@progbits
.global	_Z9toggleLedmi
	.type	_Z9toggleLedmi, @function
_Z9toggleLedmi:
.LFB59:
	.loc 2 163 0
	.cfi_startproc
.LVL5:
/* prologue: function */
/* frame size = 0 */
/* stack size = 0 */
.L__stack_usage = 0
	.loc 2 164 0
	in r18,0x18
	cp r20,__zero_reg__
	cpc r21,__zero_reg__
	brne .L4
	ldi r20,lo8(16)
.LVL6:
.L4:
	.loc 2 164 0 is_stmt 0 discriminator 3
	eor r20,r18
	out 0x18,r20
	.loc 2 165 0 is_stmt 1 discriminator 3
	cp r22,__zero_reg__
	cpc r23,__zero_reg__
	cpc r24,__zero_reg__
	cpc r25,__zero_reg__
	breq .L3
	.loc 2 166 0
	rjmp _ZN7ATTimer6udelayEm
.LVL7:
.L3:
	ret
	.cfi_endproc
.LFE59:
	.size	_Z9toggleLedmi, .-_Z9toggleLedmi
	.section	.text._Z5blinkmii,"ax",@progbits
.global	_Z5blinkmii
	.type	_Z5blinkmii, @function
_Z5blinkmii:
.LFB60:
	.loc 2 170 0
	.cfi_startproc
.LVL8:
	push r12
.LCFI4:
	.cfi_def_cfa_offset 3
	.cfi_offset 12, -2
	push r13
.LCFI5:
	.cfi_def_cfa_offset 4
	.cfi_offset 13, -3
	push r14
.LCFI6:
	.cfi_def_cfa_offset 5
	.cfi_offset 14, -4
	push r15
.LCFI7:
	.cfi_def_cfa_offset 6
	.cfi_offset 15, -5
	push r16
.LCFI8:
	.cfi_def_cfa_offset 7
	.cfi_offset 16, -6
	push r17
.LCFI9:
	.cfi_def_cfa_offset 8
	.cfi_offset 17, -7
	push r28
.LCFI10:
	.cfi_def_cfa_offset 9
	.cfi_offset 28, -8
	push r29
.LCFI11:
	.cfi_def_cfa_offset 10
	.cfi_offset 29, -9
/* prologue: function */
/* frame size = 0 */
/* stack size = 8 */
.L__stack_usage = 8
	movw r12,r22
	movw r14,r24
	movw r28,r20
	movw r16,r18
.LVL9:
.L9:
	.loc 2 171 0 discriminator 1
	sbiw r28,0
	breq .L11
	.loc 2 172 0 discriminator 2
	movw r20,r16
	movw r24,r14
	movw r22,r12
	rcall _Z9toggleLedmi
.LVL10:
	.loc 2 171 0 discriminator 2
	sbiw r28,1
.LVL11:
	rjmp .L9
.L11:
/* epilogue start */
	.loc 2 173 0
	pop r29
	pop r28
.LVL12:
	pop r17
	pop r16
.LVL13:
	pop r15
	pop r14
	pop r13
	pop r12
.LVL14:
	ret
	.cfi_endproc
.LFE60:
	.size	_Z5blinkmii, .-_Z5blinkmii
	.section	.text._Z7execCmdPc,"ax",@progbits
.global	_Z7execCmdPc
	.type	_Z7execCmdPc, @function
_Z7execCmdPc:
.LFB62:
	.loc 2 212 0
	.cfi_startproc
.LVL15:
	push r16
.LCFI12:
	.cfi_def_cfa_offset 3
	.cfi_offset 16, -2
	push r17
.LCFI13:
	.cfi_def_cfa_offset 4
	.cfi_offset 17, -3
	push r28
.LCFI14:
	.cfi_def_cfa_offset 5
	.cfi_offset 28, -4
	push r29
.LCFI15:
	.cfi_def_cfa_offset 6
	.cfi_offset 29, -5
	rcall .
	rcall .
.LCFI16:
	.cfi_def_cfa_offset 10
	in r28,__SP_L__
	in r29,__SP_H__
.LCFI17:
	.cfi_def_cfa_register 28
/* prologue: function */
/* frame size = 4 */
/* stack size = 8 */
.L__stack_usage = 8
	movw r16,r24
.LBB29:
	.loc 2 214 0
	movw r30,r24
	ld r24,Z
.LVL16:
	cpi r24,lo8(108)
	brne .L13
	.loc 2 215 0
	ldd r24,Z+1
	tst r24
	brne .+2
	rjmp .L16
	.loc 2 218 0
	ldi r20,0
	ldi r21,0
	ldi r22,lo8(-1)
	ldi r23,lo8(-1)
	movw r24,r16
	adiw r24,1
	rcall _strntoll
.LVL17:
	sts ledtime,r18
	sts ledtime+1,r19
	sts ledtime+2,r20
	sts ledtime+3,r21
	rjmp .L21
.L13:
.LBB30:
	.loc 2 223 0
	cpi r24,lo8(98)
	brne .L15
.LBB31:
	.loc 2 224 0
	sts blk+1,__zero_reg__
	.loc 2 226 0
	movw r30,r16
	ldd r24,Z+1
	tst r24
	brne .+2
	rjmp .L17
	.loc 2 228 0
	ldi r20,0
	ldi r21,0
	ldi r22,lo8(1)
	ldi r23,0
	movw r24,r16
	adiw r24,1
	rcall _strntoll
.LVL18:
	.loc 2 229 0
	ldi r24,lo8(16)
	sts blk,r24
	.loc 2 231 0
	movw r30,r16
	ldd r24,Z+4
	tst r24
	brne .+2
	rjmp .L18
	.loc 2 233 0
	ldi r20,0
	ldi r21,0
	ldi r22,lo8(-1)
	ldi r23,lo8(-1)
	movw r24,r16
	adiw r24,4
	rcall _strntoll
.LVL19:
	sts blk+2,r18
	sts blk+3,r19
	.loc 2 235 0
	movw r30,r16
	ldd r24,Z+2
	tst r24
	breq .L19
	.loc 2 237 0
	ldi r20,0
	ldi r21,0
	ldi r22,lo8(2)
	ldi r23,0
	movw r24,r16
	adiw r24,2
	rcall _strntoll
.LVL20:
	sts blk+1,r18
	rjmp .L21
.L15:
.LBE31:
.LBE30:
	.loc 2 243 0
	cpi r24,lo8(116)
	brne .L20
	.loc 2 244 0
	ldi r24,lo8(113)
	ldi r25,lo8(2)
	std Y+2,r25
	std Y+1,r24
.LVL21:
.LBB33:
.LBB34:
.LBB35:
	.loc 1 282 0
	ldi r18,lo8(1)
	ldi r20,lo8(2)
	movw r22,r28
	subi r22,-1
	sbci r23,-1
	ldi r24,lo8(spi+13)
	ldi r25,hi8(spi+13)
	rcall _ZN14CircularBuffer7putDataEPKchb
.LVL22:
.LBE35:
.LBE34:
.LBE33:
	.loc 2 245 0
	ldi r24,lo8(timer)
	ldi r25,hi8(timer)
	rcall _ZN7ATTimer5uTickEv
.LVL23:
	std Y+2,r23
	std Y+1,r22
.LVL24:
.LBB36:
.LBB37:
.LBB38:
	.loc 1 282 0
	ldi r18,lo8(1)
	ldi r20,lo8(2)
	movw r22,r28
	subi r22,-1
	sbci r23,-1
	ldi r24,lo8(spi+13)
	ldi r25,hi8(spi+13)
	rcall _ZN14CircularBuffer7putDataEPKchb
.LVL25:
.LBE38:
.LBE37:
.LBE36:
	.loc 2 246 0
	ldi r24,lo8(timer)
	ldi r25,hi8(timer)
	rcall _ZN7ATTimer8baseTimeEv
.LVL26:
	std Y+1,r18
	std Y+2,r19
	std Y+3,r20
	std Y+4,r21
.LVL27:
.LBB39:
.LBB40:
.LBB41:
	.loc 1 282 0
	ldi r18,lo8(1)
	ldi r20,lo8(4)
	movw r22,r28
	subi r22,-1
	sbci r23,-1
	ldi r24,lo8(spi+13)
	ldi r25,hi8(spi+13)
	rcall _ZN14CircularBuffer7putDataEPKchb
.LVL28:
.L21:
.LBE41:
.LBE40:
.LBE39:
	.loc 2 247 0
	ldi r24,0
	rjmp .L14
.L16:
	.loc 2 216 0
	ldi r24,lo8(84)
	rjmp .L14
.L17:
.LBB42:
.LBB32:
	.loc 2 227 0
	ldi r24,lo8(65)
	rjmp .L14
.L18:
	.loc 2 232 0
	ldi r24,lo8(66)
	rjmp .L14
.L19:
	.loc 2 236 0
	ldi r24,lo8(67)
	rjmp .L14
.L20:
.LBE32:
.LBE42:
	.loc 2 250 0
	ldi r24,lo8(-18)
.L14:
/* epilogue start */
.LBE29:
	.loc 2 251 0
	pop __tmp_reg__
	pop __tmp_reg__
	pop __tmp_reg__
	pop __tmp_reg__
	pop r29
	pop r28
	pop r17
	pop r16
.LVL29:
	ret
	.cfi_endproc
.LFE62:
	.size	_Z7execCmdPc, .-_Z7execCmdPc
	.section	.rodata.str1.1,"aMS",@progbits,1
.LC0:
	.string	"OK"
	.section	.text._Z10spiCommSlvv,"ax",@progbits
.global	_Z10spiCommSlvv
	.type	_Z10spiCommSlvv, @function
_Z10spiCommSlvv:
.LFB61:
	.loc 2 176 0
	.cfi_startproc
	push r28
.LCFI18:
	.cfi_def_cfa_offset 3
	.cfi_offset 28, -2
	push r29
.LCFI19:
	.cfi_def_cfa_offset 4
	.cfi_offset 29, -3
/* prologue: function */
/* frame size = 0 */
/* stack size = 2 */
.L__stack_usage = 2
.L24:
.LVL30:
.LBB48:
.LBB49:
.LBB50:
	.loc 1 166 0 discriminator 1
	ldi r24,lo8(spi+6)
	ldi r25,hi8(spi+6)
	rcall _ZN14CircularBuffer7getByteEv
.LVL31:
.LBE50:
.LBE49:
	.loc 2 180 0 discriminator 1
	sbrc r25,7
	rjmp .L35
	.loc 2 181 0
	cpi r24,-1
	cpc r25,__zero_reg__
	breq .L24
	.loc 2 184 0
	lds r18,_ZZ10spiCommSlvvE4cmdb
	lds r19,_ZZ10spiCommSlvvE4cmdb+1
	movw r30,r18
	subi r30,lo8(-(_ZZ10spiCommSlvvE3cmd))
	sbci r31,hi8(-(_ZZ10spiCommSlvvE3cmd))
	st Z,r24
	.loc 2 186 0
	cpi r24,lo8(35)
	brne .L26
	.loc 2 187 0
	or r18,r19
	breq .L24
	.loc 2 189 0
	st Z,__zero_reg__
	.loc 2 190 0
	lds r22,_ZZ10spiCommSlvvE3cmd
	ldi r24,lo8(spi)
	ldi r25,hi8(spi)
	rcall _ZN3SPI12setByte2XmitEc
.LVL32:
	.loc 2 191 0
	lds r28,_ZZ10spiCommSlvvE4cmdb
	lds r29,_ZZ10spiCommSlvvE4cmdb+1
	ldi r24,lo8(_ZZ10spiCommSlvvE3cmd)
	ldi r25,hi8(_ZZ10spiCommSlvvE3cmd)
	rcall _Z7execCmdPc
.LVL33:
	subi r28,lo8(-(_ZZ10spiCommSlvvE3cmd))
	sbci r29,hi8(-(_ZZ10spiCommSlvvE3cmd))
	st Y,r24
	cpse r24,__zero_reg__
	rjmp .L34
.LVL34:
.LBB51:
.LBB52:
	.loc 1 282 0
	ldi r18,lo8(1)
	ldi r20,lo8(2)
	ldi r22,lo8(.LC0)
	ldi r23,hi8(.LC0)
	ldi r24,lo8(spi+13)
	ldi r25,hi8(spi+13)
	rcall _ZN14CircularBuffer7putDataEPKchb
.LVL35:
	rjmp .L33
.LVL36:
.L26:
.LBE52:
.LBE51:
	.loc 2 200 0
	subi r18,-1
	sbci r19,-1
	sts _ZZ10spiCommSlvvE4cmdb+1,r19
	sts _ZZ10spiCommSlvvE4cmdb,r18
	.loc 2 201 0
	cpi r18,16
	cpc r19,__zero_reg__
	brne .L24
	.loc 2 202 0
	ldi r22,lo8(90)
	ldi r24,lo8(spi)
	ldi r25,hi8(spi)
	rcall _ZN3SPI12setByte2XmitEc
.LVL37:
.L34:
	.loc 2 203 0
	ldi r22,lo8(63)
	ldi r24,lo8(spi)
	ldi r25,hi8(spi)
	rcall _ZN3SPI12setByte2XmitEc
.LVL38:
	.loc 2 204 0
	lds r30,_ZZ10spiCommSlvvE4cmdb
	lds r31,_ZZ10spiCommSlvvE4cmdb+1
	subi r30,lo8(-(_ZZ10spiCommSlvvE3cmd))
	sbci r31,hi8(-(_ZZ10spiCommSlvvE3cmd))
	ld r22,Z
	ldi r24,lo8(spi)
	ldi r25,hi8(spi)
	rcall _ZN3SPI12setByte2XmitEc
.LVL39:
.L33:
	.loc 2 205 0
	sts _ZZ10spiCommSlvvE4cmdb+1,__zero_reg__
	sts _ZZ10spiCommSlvvE4cmdb,__zero_reg__
	rjmp .L24
.L35:
/* epilogue start */
.LBE48:
	.loc 2 209 0
	pop r29
	pop r28
	ret
	.cfi_endproc
.LFE61:
	.size	_Z10spiCommSlvv, .-_Z10spiCommSlvv
	.section	.text.startup.main,"ax",@progbits
.global	main
	.type	main, @function
main:
.LFB58:
	.loc 2 112 0
	.cfi_startproc
/* prologue: function */
/* frame size = 0 */
/* stack size = 0 */
.L__stack_usage = 0
.LBB67:
.LBB68:
.LBB69:
	.file 3 "../include/inithw.h"
	.loc 3 31 0
	in r25,__SREG__
.LVL40:
	.loc 3 32 0
/* #APP */
 ;  32 "../include/inithw.h" 1
	cli
 ;  0 "" 2
	.loc 3 36 0
/* #NOAPP */
	in r24,0x27
	andi r24,lo8(-7)
	out 0x27,r24
	.loc 3 37 0
/* #APP */
 ;  37 "../include/inithw.h" 1
	nop
 ;  0 "" 2
	.loc 3 41 0
/* #NOAPP */
	ldi r24,lo8(-128)
	out 0x26,r24
	.loc 3 42 0
	out 0x26,__zero_reg__
	.loc 3 43 0
/* #APP */
 ;  43 "../include/inithw.h" 1
	nop
 ;  0 "" 2
	.loc 3 45 0
/* #NOAPP */
	out __SREG__,r25
	.loc 3 48 0
	out 0x2c,__zero_reg__
	.loc 3 56 0
	out 0x39,__zero_reg__
.LBE69:
.LBE68:
	.loc 2 118 0
	rcall _Z5setupv
.LVL41:
	.loc 2 120 0
	ldi r24,lo8(timer)
	ldi r25,hi8(timer)
	rcall _ZN7ATTimer5resetEv
.LVL42:
	.loc 2 121 0
	ldi r24,lo8(timer)
	ldi r25,hi8(timer)
	rcall _ZN7ATTimer8baseTimeEv
.LVL43:
	sts _ZZ4mainE2t0,r18
	sts _ZZ4mainE2t0+1,r19
	sts _ZZ4mainE2t0+2,r20
	sts _ZZ4mainE2t0+3,r21
	sts _ZZ4mainE2t0+4,r22
	sts _ZZ4mainE2t0+5,r23
	sts _ZZ4mainE2t0+6,r24
	sts _ZZ4mainE2t0+7,r25
.LBB70:
.LBB71:
	.loc 2 164 0
	ldi r28,lo8(16)
.L47:
.LBE71:
.LBE70:
	.loc 2 125 0
	lds r20,_ZZ4mainE4tled
	lds r21,_ZZ4mainE4tled+1
	lds r22,_ZZ4mainE4tled+2
	lds r23,_ZZ4mainE4tled+3
	lds r24,cycleTime
	lds r25,cycleTime+1
	lds r26,cycleTime+2
	lds r27,cycleTime+3
	cp r24,r20
	cpc r25,r21
	cpc r26,r22
	cpc r27,r23
	brlo .L37
.LVL44:
.LBB73:
.LBB72:
	.loc 2 164 0
	in r24,0x18
	eor r24,r28
	out 0x18,r24
.LBE72:
.LBE73:
	.loc 2 127 0
	lds r24,ledtime
	lds r25,ledtime+1
	lds r26,ledtime+2
	lds r27,ledtime+3
	sts _ZZ4mainE4tled,r24
	sts _ZZ4mainE4tled+1,r25
	sts _ZZ4mainE4tled+2,r26
	sts _ZZ4mainE4tled+3,r27
	rjmp .L38
.LVL45:
.L37:
	.loc 2 129 0
	sub r20,r24
	sbc r21,r25
	sbc r22,r26
	sbc r23,r27
	sts _ZZ4mainE4tled,r20
	sts _ZZ4mainE4tled+1,r21
	sts _ZZ4mainE4tled+2,r22
	sts _ZZ4mainE4tled+3,r23
.L38:
	.loc 2 132 0
	lds r24,blk+1
	tst r24
	brne .+2
	rjmp .L39
	.loc 2 134 0
	lds r20,_ZZ4mainE5tled2
	lds r21,_ZZ4mainE5tled2+1
	lds r22,_ZZ4mainE5tled2+2
	lds r23,_ZZ4mainE5tled2+3
	lds r24,cycleTime
	lds r25,cycleTime+1
	lds r26,cycleTime+2
	lds r27,cycleTime+3
	cp r24,r20
	cpc r25,r21
	cpc r26,r22
	cpc r27,r23
	brlo .L40
	.loc 2 135 0
	lds r20,blk
	ldi r21,0
	ldi r22,0
	ldi r23,0
	movw r24,r22
	rcall _Z9toggleLedmi
.LVL46:
	.loc 2 136 0
	lds r24,blk+1
	subi r24,lo8(-(-1))
	sts blk+1,r24
	.loc 2 137 0
	tst r24
	breq .L48
	.loc 2 137 0 is_stmt 0 discriminator 1
	lds r22,blk+2
	lds r23,blk+2+1
	clr r24
	sbrc r23,7
	com r24
	mov r25,r24
	ldi r18,lo8(-24)
	ldi r19,lo8(3)
	ldi r20,0
	ldi r21,0
	rcall __umulsidi3
	mov r23,r18
	mov r22,r19
	mov r25,r20
	mov r24,r21
	movw r18,r22
	rjmp .L41
.L48:
	.loc 2 137 0
	ldi r19,0
	ldi r18,0
	ldi r25,0
	ldi r24,0
.L41:
	.loc 2 137 0 discriminator 1
	sts _ZZ4mainE5tled2,r19
	sts _ZZ4mainE5tled2+1,r18
	sts _ZZ4mainE5tled2+2,r25
	sts _ZZ4mainE5tled2+3,r24
	rjmp .L39
.L40:
	.loc 2 139 0 is_stmt 1
	sub r20,r24
	sbc r21,r25
	sbc r22,r26
	sbc r23,r27
	sts _ZZ4mainE5tled2,r20
	sts _ZZ4mainE5tled2+1,r21
	sts _ZZ4mainE5tled2+2,r22
	sts _ZZ4mainE5tled2+3,r23
.L39:
	.loc 2 144 0
	in r24,0x16
	andi r24,lo8(8)
	sts _ZZ4mainE8csStatus,r24
	.loc 2 145 0
	lds r25,_ZZ4mainE2k1
	cp r24,r25
	breq .L42
	.loc 2 146 0
	sts _ZZ4mainE2k1,r24
	.loc 2 147 0
	ldi r22,lo8(1)
	cpse r24,__zero_reg__
	ldi r22,0
.L43:
	ldi r24,lo8(spi)
	ldi r25,hi8(spi)
	rcall _ZN3SPI7enabledEb
.LVL47:
.L42:
	.loc 2 150 0
	lds r24,_ZZ4mainE8csStatus
	cpse r24,__zero_reg__
	rjmp .L44
.LVL48:
.LBB74:
.LBB75:
.LBB76:
	.file 4 "../circbuff.h"
	.loc 4 75 0
	lds r25,spi+11
	lds r24,spi+6
	cpse r25,__zero_reg__
	rjmp .L46
	lds r25,spi+8
	lds r18,spi+7
.LVL49:
	subi r24,lo8(-(-1))
	sub r25,r18
	and r24,r25
.LVL50:
.L46:
.LBE76:
.LBE75:
.LBE74:
	.loc 2 151 0
	cpse r24,__zero_reg__
	.loc 2 152 0
	rcall _Z10spiCommSlvv
.LVL51:
.L44:
	.loc 2 156 0
	lds r24,_ZZ4mainE2t0
	lds r25,_ZZ4mainE2t0+1
	lds r26,_ZZ4mainE2t0+2
	lds r27,_ZZ4mainE2t0+3
	com r27
	com r26
	com r25
	neg r24
	sbci r25,lo8(-1)
	sbci r26,lo8(-1)
	sbci r27,lo8(-1)
	sts cycleTime,r24
	sts cycleTime+1,r25
	sts cycleTime+2,r26
	sts cycleTime+3,r27
	ldi r24,lo8(timer)
	ldi r25,hi8(timer)
	rcall _ZN7ATTimer8baseTimeEv
.LVL52:
	movw r8,r18
	movw r10,r20
	movw r12,r22
	movw r14,r24
	sts _ZZ4mainE2t0,r18
	sts _ZZ4mainE2t0+1,r9
	sts _ZZ4mainE2t0+2,r20
	sts _ZZ4mainE2t0+3,r11
	sts _ZZ4mainE2t0+4,r22
	sts _ZZ4mainE2t0+5,r13
	sts _ZZ4mainE2t0+6,r24
	sts _ZZ4mainE2t0+7,r15
	lds r24,cycleTime
	lds r25,cycleTime+1
	lds r26,cycleTime+2
	lds r27,cycleTime+3
	add r24,r8
	adc r25,r9
	adc r26,r10
	adc r27,r11
	sts cycleTime,r24
	sts cycleTime+1,r25
	sts cycleTime+2,r26
	sts cycleTime+3,r27
	.loc 2 159 0
	rjmp .L47
.LBE67:
	.cfi_endproc
.LFE58:
	.size	main, .-main
	.section	.text.startup._GLOBAL__sub_I_timer,"ax",@progbits
	.type	_GLOBAL__sub_I_timer, @function
_GLOBAL__sub_I_timer:
.LFB64:
	.loc 2 251 0
	.cfi_startproc
/* prologue: function */
/* frame size = 0 */
/* stack size = 0 */
.L__stack_usage = 0
.LVL53:
.LBB81:
.LBB82:
	.loc 2 68 0
	ldi r24,lo8(timer)
	ldi r25,hi8(timer)
	rcall _ZN7ATTimerC1Ev
.LVL54:
	.loc 2 80 0
	ldi r24,lo8(spi)
	ldi r25,hi8(spi)
	rjmp _ZN3SPIC1Ev
.LVL55:
.LBE82:
.LBE81:
	.cfi_endproc
.LFE64:
	.size	_GLOBAL__sub_I_timer, .-_GLOBAL__sub_I_timer
	.global __do_global_ctors
	.section .ctors,"a",@progbits
	.p2align	1
	.word	gs(_GLOBAL__sub_I_timer)
	.section	.text.exit._GLOBAL__sub_D_timer,"ax",@progbits
	.type	_GLOBAL__sub_D_timer, @function
_GLOBAL__sub_D_timer:
.LFB65:
	.loc 2 251 0
	.cfi_startproc
/* prologue: function */
/* frame size = 0 */
/* stack size = 0 */
.L__stack_usage = 0
.LVL56:
.LBB87:
.LBB88:
.LBB89:
	.loc 2 80 0
	ldi r24,lo8(spi)
	ldi r25,hi8(spi)
	rcall _ZN3SPID1Ev
.LVL57:
	.loc 2 68 0
	ldi r24,lo8(timer)
	ldi r25,hi8(timer)
	rjmp _ZN7ATTimerD1Ev
.LVL58:
.LBE89:
.LBE88:
.LBE87:
	.cfi_endproc
.LFE65:
	.size	_GLOBAL__sub_D_timer, .-_GLOBAL__sub_D_timer
	.global __do_global_dtors
	.section .dtors,"a",@progbits
	.p2align	1
	.word	gs(_GLOBAL__sub_D_timer)
	.section	.bss._ZZ10spiCommSlvvE3cmd,"aw",@nobits
	.type	_ZZ10spiCommSlvvE3cmd, @object
	.size	_ZZ10spiCommSlvvE3cmd, 16
_ZZ10spiCommSlvvE3cmd:
	.zero	16
	.section	.bss._ZZ10spiCommSlvvE4cmdb,"aw",@nobits
	.type	_ZZ10spiCommSlvvE4cmdb, @object
	.size	_ZZ10spiCommSlvvE4cmdb, 2
_ZZ10spiCommSlvvE4cmdb:
	.zero	2
	.section	.data._ZZ4mainE2k1,"aw",@progbits
	.type	_ZZ4mainE2k1, @object
	.size	_ZZ4mainE2k1, 1
_ZZ4mainE2k1:
	.byte	-1
	.section	.bss._ZZ4mainE8csStatus,"aw",@nobits
	.type	_ZZ4mainE8csStatus, @object
	.size	_ZZ4mainE8csStatus, 1
_ZZ4mainE8csStatus:
	.zero	1
	.section	.bss._ZZ4mainE5tled2,"aw",@nobits
	.type	_ZZ4mainE5tled2, @object
	.size	_ZZ4mainE5tled2, 4
_ZZ4mainE5tled2:
	.zero	4
	.section	.bss._ZZ4mainE4tled,"aw",@nobits
	.type	_ZZ4mainE4tled, @object
	.size	_ZZ4mainE4tled, 4
_ZZ4mainE4tled:
	.zero	4
	.section	.bss._ZZ4mainE2t0,"aw",@nobits
	.type	_ZZ4mainE2t0, @object
	.size	_ZZ4mainE2t0, 8
_ZZ4mainE2t0:
	.zero	8
	.section	.bss._ZZ5setupvE2tx,"aw",@nobits
	.type	_ZZ5setupvE2tx, @object
	.size	_ZZ5setupvE2tx, 32
_ZZ5setupvE2tx:
	.zero	32
	.section	.bss._ZZ5setupvE2rx,"aw",@nobits
	.type	_ZZ5setupvE2rx, @object
	.size	_ZZ5setupvE2rx, 32
_ZZ5setupvE2rx:
	.zero	32
.global	spi
	.section	.bss.spi,"aw",@nobits
	.type	spi, @object
	.size	spi, 20
spi:
	.zero	20
.global	blk
	.section	.data.blk,"aw",@progbits
	.type	blk, @object
	.size	blk, 4
blk:
	.byte	16
	.byte	10
	.word	100
.global	cycleTime
	.section	.bss.cycleTime,"aw",@nobits
	.type	cycleTime, @object
	.size	cycleTime, 4
cycleTime:
	.zero	4
.global	ledtime
	.section	.data.ledtime,"aw",@progbits
	.type	ledtime, @object
	.size	ledtime, 4
ledtime:
	.byte	-128
	.byte	-124
	.byte	30
	.byte	0
.global	timer
	.section	.bss.timer,"aw",@nobits
	.type	timer, @object
	.size	timer, 9
timer:
	.zero	9
	.text
.Letext0:
	.file 5 "../include/h_types.h"
	.file 6 "../attimer.h"
	.file 7 "../fnclib.h"