	.file	"spi.cpp"
__SP_H__ = 0x3e
__SP_L__ = 0x3d
__SREG__ = 0x3f
__tmp_reg__ = 0
__zero_reg__ = 1
	.text
.Ltext0:
	.cfi_sections	.debug_frame
	.section	.text._ZN14CircularBuffer11evalBuffDimEh,"axG",@progbits,_ZN14CircularBuffer11evalBuffDimEh,comdat
	.weak	_ZN14CircularBuffer11evalBuffDimEh
	.type	_ZN14CircularBuffer11evalBuffDimEh, @function
_ZN14CircularBuffer11evalBuffDimEh:
.LFB7:
	.file 1 "../circbuff.h"
	.loc 1 186 0
	.cfi_startproc
.LVL0:
/* prologue: function */
/* frame size = 0 */
/* stack size = 0 */
.L__stack_usage = 0
	movw r30,r24
	.loc 1 189 0
	ldi r24,lo8(-128)
.LVL1:
.L8:
	.loc 1 191 0
	st Z,r24
	.loc 1 190 0
	ld r24,Z
	tst r24
	breq .L1
	.loc 1 190 0 is_stmt 0 discriminator 2
	mov r25,r22
	and r25,r24
	brne .L1
	.loc 1 191 0 is_stmt 1
	ldi r25,0
	asr r25
	ror r24
	rjmp .L8
.L1:
	ret
	.cfi_endproc
.LFE7:
	.size	_ZN14CircularBuffer11evalBuffDimEh, .-_ZN14CircularBuffer11evalBuffDimEh
	.section	.text._ZN3SPIC2Ev,"ax",@progbits
.global	_ZN3SPIC2Ev
	.type	_ZN3SPIC2Ev, @function
_ZN3SPIC2Ev:
.LFB55:
	.file 2 "../spi.cpp"
	.loc 2 44 0
	.cfi_startproc
.LVL2:
	push r28
.LCFI0:
	.cfi_def_cfa_offset 3
	.cfi_offset 28, -2
	push r29
.LCFI1:
	.cfi_def_cfa_offset 4
	.cfi_offset 29, -3
/* prologue: function */
/* frame size = 0 */
/* stack size = 2 */
.L__stack_usage = 2
	movw r28,r24
.LBB53:
	.loc 2 45 0
	st Y,__zero_reg__
	std Y+1,__zero_reg__
	ldi r24,lo8(1)
.LVL3:
	std Y+2,r24
	std Y+3,__zero_reg__
	std Y+5,__zero_reg__
	std Y+4,__zero_reg__
	ldi r20,0
	ldi r22,0
	ldi r23,0
	movw r24,r28
	adiw r24,6
	rcall _ZN14CircularBufferC1EPch
.LVL4:
	ldi r20,0
	ldi r22,0
	ldi r23,0
	movw r24,r28
	adiw r24,13
/* epilogue start */
.LBE53:
	.loc 2 47 0
	pop r29
	pop r28
.LVL5:
.LBB54:
	.loc 2 45 0
	rjmp _ZN14CircularBufferC1EPch
.LVL6:
.LBE54:
	.cfi_endproc
.LFE55:
	.size	_ZN3SPIC2Ev, .-_ZN3SPIC2Ev
.global	_ZN3SPIC1Ev
	.set	_ZN3SPIC1Ev,_ZN3SPIC2Ev
	.section	.text._ZN3SPID2Ev,"ax",@progbits
.global	_ZN3SPID2Ev
	.type	_ZN3SPID2Ev, @function
_ZN3SPID2Ev:
.LFB58:
	.loc 2 49 0
	.cfi_startproc
.LVL7:
	push r28
.LCFI2:
	.cfi_def_cfa_offset 3
	.cfi_offset 28, -2
	push r29
.LCFI3:
	.cfi_def_cfa_offset 4
	.cfi_offset 29, -3
/* prologue: function */
/* frame size = 0 */
/* stack size = 2 */
.L__stack_usage = 2
	movw r28,r24
.LBB55:
	.loc 2 49 0
	adiw r24,13
.LVL8:
	rcall _ZN14CircularBufferD1Ev
.LVL9:
	movw r24,r28
	adiw r24,6
/* epilogue start */
.LBE55:
	.loc 2 51 0
	pop r29
	pop r28
.LVL10:
.LBB56:
	.loc 2 49 0
	rjmp _ZN14CircularBufferD1Ev
.LVL11:
.LBE56:
	.cfi_endproc
.LFE58:
	.size	_ZN3SPID2Ev, .-_ZN3SPID2Ev
.global	_ZN3SPID1Ev
	.set	_ZN3SPID1Ev,_ZN3SPID2Ev
	.section	.text._ZN3SPI5beginEPKvhS1_hbj,"ax",@progbits
.global	_ZN3SPI5beginEPKvhS1_hbj
	.type	_ZN3SPI5beginEPKvhS1_hbj, @function
_ZN3SPI5beginEPKvhS1_hbj:
.LFB60:
	.loc 2 55 0
	.cfi_startproc
.LVL12:
	push r10
.LCFI4:
	.cfi_def_cfa_offset 3
	.cfi_offset 10, -2
	push r11
.LCFI5:
	.cfi_def_cfa_offset 4
	.cfi_offset 11, -3
	push r12
.LCFI6:
	.cfi_def_cfa_offset 5
	.cfi_offset 12, -4
	push r13
.LCFI7:
	.cfi_def_cfa_offset 6
	.cfi_offset 13, -5
	push r14
.LCFI8:
	.cfi_def_cfa_offset 7
	.cfi_offset 14, -6
	push r16
.LCFI9:
	.cfi_def_cfa_offset 8
	.cfi_offset 16, -7
	push r28
.LCFI10:
	.cfi_def_cfa_offset 9
	.cfi_offset 28, -8
	push r29
.LCFI11:
	.cfi_def_cfa_offset 10
	.cfi_offset 29, -9
/* prologue: function */
/* frame size = 0 */
/* stack size = 8 */
.L__stack_usage = 8
	movw r28,r24
	movw r10,r18
.LVL13:
.LBB57:
.LBB58:
	.file 3 "../spi.h"
	.loc 3 504 0
	sts _ZN3SPI9m_spiThisE+1,r25
	sts _ZN3SPI9m_spiThisE,r24
.LVL14:
.LBE58:
.LBE57:
.LBB59:
.LBB60:
	.loc 3 483 0
	st Y,r14
.LVL15:
.LBE60:
.LBE59:
.LBB61:
.LBB62:
.LBB63:
.LBB64:
	.loc 1 178 0
	std Y+10,r23
	std Y+9,r22
	mov r22,r20
.LVL16:
	adiw r24,6
.LVL17:
	rcall _ZN14CircularBuffer11evalBuffDimEh
.LVL18:
.LBE64:
.LBE63:
.LBE62:
.LBE61:
.LBB65:
.LBB66:
.LBB67:
.LBB68:
	std Y+17,r11
	std Y+16,r10
	mov r22,r16
	movw r24,r28
	adiw r24,13
.LVL19:
	rcall _ZN14CircularBuffer11evalBuffDimEh
.LVL20:
.LBE68:
.LBE67:
.LBE66:
.LBE65:
.LBB69:
.LBB70:
	.loc 3 471 0
	std Y+5,r13
	std Y+4,r12
/* epilogue start */
.LBE70:
.LBE69:
	.loc 2 61 0
	pop r29
	pop r28
.LVL21:
	pop r16
.LVL22:
	pop r14
.LVL23:
	pop r13
	pop r12
.LVL24:
	pop r11
	pop r10
.LVL25:
	ret
	.cfi_endproc
.LFE60:
	.size	_ZN3SPI5beginEPKvhS1_hbj, .-_ZN3SPI5beginEPKvhS1_hbj
	.section	.text._ZN3SPI12outputEnableEb,"ax",@progbits
.global	_ZN3SPI12outputEnableEb
	.type	_ZN3SPI12outputEnableEb, @function
_ZN3SPI12outputEnableEb:
.LFB62:
	.loc 2 92 0
	.cfi_startproc
.LVL26:
/* prologue: function */
/* frame size = 0 */
/* stack size = 0 */
.L__stack_usage = 0
	.loc 2 93 0
	movw r30,r24
	ld r18,Z
	cpse r18,__zero_reg__
	rjmp .L13
	.loc 2 96 0
/* #APP */
 ;  96 "../spi.cpp" 1
	cli
 ;  0 "" 2
.LVL27:
/* #NOAPP */
.LBB71:
.LBB72:
	.loc 3 459 0
	movw r30,r24
	std Z+2,r22
.LBE72:
.LBE71:
	.loc 2 98 0
	in r24,0x17
.LVL28:
	andi r24,lo8(-3)
	tst r22
	breq .L16
	ldi r25,lo8(2)
	rjmp .L15
.L16:
	ldi r25,0
.L15:
	.loc 2 98 0 is_stmt 0 discriminator 3
	or r24,r25
	out 0x17,r24
	.loc 2 99 0 is_stmt 1 discriminator 3
	cbi 0x18,1
	.loc 2 100 0 discriminator 3
/* #APP */
 ;  100 "../spi.cpp" 1
	sei
 ;  0 "" 2
.LVL29:
/* #NOAPP */
.L13:
	ret
	.cfi_endproc
.LFE62:
	.size	_ZN3SPI12outputEnableEb, .-_ZN3SPI12outputEnableEb
	.section	.text._ZN3SPI19_enableOvfInterruptEv,"ax",@progbits
.global	_ZN3SPI19_enableOvfInterruptEv
	.type	_ZN3SPI19_enableOvfInterruptEv, @function
_ZN3SPI19_enableOvfInterruptEv:
.LFB63:
	.loc 2 104 0
	.cfi_startproc
.LVL30:
/* prologue: function */
/* frame size = 0 */
/* stack size = 0 */
.L__stack_usage = 0
.LBB73:
	.loc 2 105 0
/* #APP */
 ;  105 "../spi.cpp" 1
	cli
 ;  0 "" 2
.LVL31:
/* #NOAPP */
.LBB74:
.LBB75:
	.loc 3 430 0
	adiw r24,13
.LVL32:
	rcall _ZN14CircularBuffer7getByteEv
.LVL33:
.LBE75:
.LBE74:
	.loc 2 110 0
	ldi r25,lo8(64)
	out 0xe,r25
	.loc 2 112 0
	sbi 0xd,6
	.loc 2 114 0
	out 0xf,r24
	.loc 2 116 0
/* #APP */
 ;  116 "../spi.cpp" 1
	sei
 ;  0 "" 2
/* #NOAPP */
	ret
.LBE73:
	.cfi_endproc
.LFE63:
	.size	_ZN3SPI19_enableOvfInterruptEv, .-_ZN3SPI19_enableOvfInterruptEv
	.section	.text._ZN3SPI7enabledEb,"ax",@progbits
.global	_ZN3SPI7enabledEb
	.type	_ZN3SPI7enabledEb, @function
_ZN3SPI7enabledEb:
.LFB61:
	.loc 2 64 0
	.cfi_startproc
.LVL34:
/* prologue: function */
/* frame size = 0 */
/* stack size = 0 */
.L__stack_usage = 0
	.loc 2 65 0
	out 0xd,__zero_reg__
	.loc 2 67 0
	cpse r22,__zero_reg__
	rjmp .L19
	.loc 2 69 0
	in r24,0x17
.LVL35:
	andi r24,lo8(-8)
	rjmp .L24
.LVL36:
.L19:
	.loc 2 75 0
	movw r30,r24
	ld r18,Z
	tst r18
	breq .L21
	.loc 2 77 0
	in r24,0x17
.LVL37:
	andi r24,lo8(-8)
	ori r24,lo8(5)
.LVL38:
.L24:
	out 0x17,r24
	.loc 2 79 0
	in r24,0x18
	andi r24,lo8(-8)
	out 0x18,r24
	ret
.LVL39:
.L21:
	.loc 2 82 0
	in r18,0x17
	andi r18,lo8(-8)
.LVL40:
	movw r30,r24
	ldd r19,Z+2
	tst r19
	breq .L23
	ldi r19,lo8(2)
	rjmp .L22
.L23:
	ldi r19,0
.L22:
	.loc 2 82 0 is_stmt 0 discriminator 3
	or r18,r19
	out 0x17,r18
	.loc 2 83 0 is_stmt 1 discriminator 3
	in r18,0x18
	andi r18,lo8(-8)
	out 0x18,r18
	.loc 2 85 0 discriminator 3
	ldi r18,lo8(24)
	out 0xd,r18
	.loc 2 87 0 discriminator 3
	rjmp _ZN3SPI19_enableOvfInterruptEv
.LVL41:
	.cfi_endproc
.LFE61:
	.size	_ZN3SPI7enabledEb, .-_ZN3SPI7enabledEb
	.section	.text._ZN3SPI19enhancedGetRcvdDataEPKvh,"ax",@progbits
.global	_ZN3SPI19enhancedGetRcvdDataEPKvh
	.type	_ZN3SPI19enhancedGetRcvdDataEPKvh, @function
_ZN3SPI19enhancedGetRcvdDataEPKvh:
.LFB64:
	.loc 2 120 0
	.cfi_startproc
.LVL42:
	push r7
.LCFI12:
	.cfi_def_cfa_offset 3
	.cfi_offset 7, -2
	push r8
.LCFI13:
	.cfi_def_cfa_offset 4
	.cfi_offset 8, -3
	push r9
.LCFI14:
	.cfi_def_cfa_offset 5
	.cfi_offset 9, -4
	push r10
.LCFI15:
	.cfi_def_cfa_offset 6
	.cfi_offset 10, -5
	push r11
.LCFI16:
	.cfi_def_cfa_offset 7
	.cfi_offset 11, -6
	push r12
.LCFI17:
	.cfi_def_cfa_offset 8
	.cfi_offset 12, -7
	push r13
.LCFI18:
	.cfi_def_cfa_offset 9
	.cfi_offset 13, -8
	push r14
.LCFI19:
	.cfi_def_cfa_offset 10
	.cfi_offset 14, -9
	push r15
.LCFI20:
	.cfi_def_cfa_offset 11
	.cfi_offset 15, -10
	push r16
.LCFI21:
	.cfi_def_cfa_offset 12
	.cfi_offset 16, -11
	push r17
.LCFI22:
	.cfi_def_cfa_offset 13
	.cfi_offset 17, -12
	push r28
.LCFI23:
	.cfi_def_cfa_offset 14
	.cfi_offset 28, -13
	push r29
.LCFI24:
	.cfi_def_cfa_offset 15
	.cfi_offset 29, -14
/* prologue: function */
/* frame size = 0 */
/* stack size = 13 */
.L__stack_usage = 13
	movw r28,r24
	movw r10,r22
.LVL43:
.LBB82:
	.loc 2 123 0
	ldi r16,0
	ldi r17,0
	.loc 2 127 0
	mov r12,r20
	mov r13,__zero_reg__
	.loc 2 128 0
	movw r8,r24
	ldi r24,6
	add r8,r24
	adc r9,__zero_reg__
.LVL44:
	.loc 2 131 0
	clr r7
	inc r7
.LVL45:
.L26:
	.loc 2 127 0 discriminator 1
	cp r16,r12
	cpc r17,r13
	brsh .L45
	.loc 2 128 0
	movw r14,r10
	add r14,r16
	adc r15,r17
.LVL46:
.LBB83:
.LBB84:
	.loc 1 96 0
	movw r24,r8
	rcall _ZN14CircularBuffer7getByteEv
.LVL47:
	sbrs r25,7
	rjmp .L27
	movw r30,r14
	ld r18,Z
	rjmp .L28
.L27:
	mov r18,r24
.L28:
	movw r30,r14
	st Z,r18
.LBE84:
.LBE83:
	.loc 2 128 0
	sbrc r25,7
	rjmp .L45
	.loc 2 129 0
	ldd r24,Y+1
.LVL48:
	cpse r24,__zero_reg__
	rjmp .L30
	.loc 2 130 0
	cpi r18,lo8(27)
	brne .L31
	.loc 2 131 0
	std Y+1,r7
	.loc 2 132 0
	rjmp .L26
.L31:
	.loc 2 134 0
	ldi r24,lo8(-1)
	add r24,r18
	cpi r24,lo8(-2)
	brsh .L26
	.loc 2 135 0
	cpi r18,lo8(-86)
	brne .L33
	rjmp .L26
.L30:
	.loc 2 140 0
	ldi r24,lo8(-1)
	add r24,r18
	cpi r24,lo8(-2)
	brsh .L33
	.loc 2 141 0
	cpi r18,lo8(-86)
	breq .L33
	.loc 2 142 0
	cpi r18,lo8(27)
	breq .L33
.LVL49:
.LBB85:
.LBB86:
	.loc 3 453 0
	std Y+3,r18
.LVL50:
.L33:
.LBE86:
.LBE85:
	.loc 2 147 0
	subi r16,-1
	sbci r17,-1
.LVL51:
	.loc 2 148 0
	std Y+1,__zero_reg__
	rjmp .L26
.LVL52:
.L45:
.LBE82:
	.loc 2 155 0
	mov r24,r16
/* epilogue start */
	pop r29
	pop r28
.LVL53:
	pop r17
	pop r16
.LVL54:
	pop r15
	pop r14
	pop r13
	pop r12
.LVL55:
	pop r11
	pop r10
.LVL56:
	pop r9
	pop r8
.LVL57:
	pop r7
	ret
	.cfi_endproc
.LFE64:
	.size	_ZN3SPI19enhancedGetRcvdDataEPKvh, .-_ZN3SPI19enhancedGetRcvdDataEPKvh
	.section	.text._ZN3SPI20enhancedSetData2XmitEPKvh,"ax",@progbits
.global	_ZN3SPI20enhancedSetData2XmitEPKvh
	.type	_ZN3SPI20enhancedSetData2XmitEPKvh, @function
_ZN3SPI20enhancedSetData2XmitEPKvh:
.LFB65:
	.loc 2 158 0
	.cfi_startproc
.LVL58:
	push r10
.LCFI25:
	.cfi_def_cfa_offset 3
	.cfi_offset 10, -2
	push r11
.LCFI26:
	.cfi_def_cfa_offset 4
	.cfi_offset 11, -3
	push r12
.LCFI27:
	.cfi_def_cfa_offset 5
	.cfi_offset 12, -4
	push r13
.LCFI28:
	.cfi_def_cfa_offset 6
	.cfi_offset 13, -5
	push r14
.LCFI29:
	.cfi_def_cfa_offset 7
	.cfi_offset 14, -6
	push r15
.LCFI30:
	.cfi_def_cfa_offset 8
	.cfi_offset 15, -7
	push r16
.LCFI31:
	.cfi_def_cfa_offset 9
	.cfi_offset 16, -8
	push r17
.LCFI32:
	.cfi_def_cfa_offset 10
	.cfi_offset 17, -9
	push r28
.LCFI33:
	.cfi_def_cfa_offset 11
	.cfi_offset 28, -10
	push r29
.LCFI34:
	.cfi_def_cfa_offset 12
	.cfi_offset 29, -11
/* prologue: function */
/* frame size = 0 */
/* stack size = 10 */
.L__stack_usage = 10
	movw r14,r22
.LVL59:
.LBB87:
	.loc 2 164 0
	movw r28,r22
	mov r16,r20
	ldi r17,0
	adiw r24,13
.LVL60:
	movw r12,r24
.LVL61:
.L47:
	movw r24,r28
	sub r24,r14
	sbc r25,r15
	.loc 2 164 0 is_stmt 0 discriminator 1
	cp r24,r16
	cpc r25,r17
	brsh .L60
	movw r10,r28
	.loc 2 165 0 is_stmt 1
	ld r24,Y
	cpi r24,lo8(27)
	breq .L48
	.loc 2 165 0 is_stmt 0 discriminator 1
	cpi r24,lo8(-1)
	breq .L48
	tst r24
	breq .L48
	.loc 2 166 0 is_stmt 1
	cpi r24,lo8(-86)
	brne .L49
.L48:
	.loc 2 167 0
	ldi r20,lo8(1)
	ldi r22,lo8(27)
	movw r24,r12
	rcall _ZN14CircularBuffer7putByteEcb
.LVL62:
.L49:
	adiw r28,1
.LVL63:
	.loc 2 170 0
	ldi r20,lo8(1)
	movw r30,r10
	ld r22,Z
	movw r24,r12
	rcall _ZN14CircularBuffer7putByteEcb
.LVL64:
	rjmp .L47
.L60:
.LBE87:
	.loc 2 176 0
	mov r24,r16
/* epilogue start */
	pop r29
	pop r28
.LVL65:
	pop r17
	pop r16
.LVL66:
	pop r15
	pop r14
.LVL67:
	pop r13
	pop r12
.LVL68:
	pop r11
	pop r10
	ret
	.cfi_endproc
.LFE65:
	.size	_ZN3SPI20enhancedSetData2XmitEPKvh, .-_ZN3SPI20enhancedSetData2XmitEPKvh
	.section	.text._ZN3SPI10sendMasterEh,"ax",@progbits
.global	_ZN3SPI10sendMasterEh
	.type	_ZN3SPI10sendMasterEh, @function
_ZN3SPI10sendMasterEh:
.LFB66:
	.loc 2 180 0
	.cfi_startproc
.LVL69:
	push r10
.LCFI35:
	.cfi_def_cfa_offset 3
	.cfi_offset 10, -2
	push r11
.LCFI36:
	.cfi_def_cfa_offset 4
	.cfi_offset 11, -3
	push r12
.LCFI37:
	.cfi_def_cfa_offset 5
	.cfi_offset 12, -4
	push r13
.LCFI38:
	.cfi_def_cfa_offset 6
	.cfi_offset 13, -5
	push r14
.LCFI39:
	.cfi_def_cfa_offset 7
	.cfi_offset 14, -6
	push r15
.LCFI40:
	.cfi_def_cfa_offset 8
	.cfi_offset 15, -7
	push r16
.LCFI41:
	.cfi_def_cfa_offset 9
	.cfi_offset 16, -8
	push r17
.LCFI42:
	.cfi_def_cfa_offset 10
	.cfi_offset 17, -9
	push r28
.LCFI43:
	.cfi_def_cfa_offset 11
	.cfi_offset 28, -10
	push r29
.LCFI44:
	.cfi_def_cfa_offset 12
	.cfi_offset 29, -11
/* prologue: function */
/* frame size = 0 */
/* stack size = 10 */
.L__stack_usage = 10
	movw r16,r24
	mov r11,r22
.LVL70:
.LBB105:
	.loc 2 181 0
	mov r10,__zero_reg__
.LBB106:
.LBB107:
	.loc 3 431 0
	movw r14,r24
	ldi r18,13
	add r14,r18
	adc r15,__zero_reg__
.LBE107:
.LBE106:
.LBB111:
.LBB112:
.LBB113:
	.loc 3 423 0
	movw r12,r24
	ldi r24,6
	add r12,r24
	adc r13,__zero_reg__
.LVL71:
.L62:
.LBE113:
.LBE112:
.LBE111:
.LBB124:
.LBB110:
.LBB108:
.LBB109:
	.loc 1 96 0 discriminator 1
	movw r24,r14
	rcall _ZN14CircularBuffer7getByteEv
.LVL72:
	movw r18,r24
.LVL73:
	sbrc r25,7
	rjmp .L73
	.loc 1 96 0 is_stmt 0
	mov r25,r24
	rjmp .L69
.L73:
	ldi r25,lo8(-1)
.L69:
.LVL74:
.LBE109:
.LBE108:
.LBE110:
.LBE124:
	.loc 2 184 0 is_stmt 1
	sbrs r19,7
	rjmp .L70
	.loc 2 184 0 is_stmt 0 discriminator 2
	tst r11
	breq .L71
.L70:
.LBE105:
	.loc 2 180 0 is_stmt 1
	ldi r24,lo8(8)
.LVL75:
.L72:
.LBB126:
.LBB125:
.LBB115:
.LBB116:
	.loc 2 202 0
	in r19,0x18
	mov r18,r25
	rol r18
	clr r18
	rol r18
	andi r19,lo8(-2)
	or r18,r19
	out 0x18,r18
	.loc 2 204 0
	sbi 0x18,2
.LVL76:
.LBB117:
.LBB118:
.LBB119:
	.loc 3 465 0
	movw r30,r16
	ldd r20,Z+4
	ldd r21,Z+5
.LBE119:
.LBE118:
	.loc 2 205 0
	ldi r18,0
	ldi r19,0
.LVL77:
.L63:
	.loc 2 205 0 is_stmt 0 discriminator 1
	cp r18,r20
	cpc r19,r21
	breq .L77
	.loc 2 205 0 discriminator 2
/* #APP */
 ;  205 "../spi.cpp" 1
	nop
 ;  0 "" 2
/* #NOAPP */
	subi r18,-1
	sbci r19,-1
.LVL78:
	rjmp .L63
.L77:
.LBE117:
	.loc 2 209 0 is_stmt 1
	in r18,0x16
.LVL79:
	.loc 2 207 0
	lsl r25
	.loc 2 209 0
	lsr r18
	andi r18,1
	mov r28,r18
	or r28,r25
.LVL80:
	mov r25,r28
.LVL81:
	.loc 2 210 0
	cbi 0x18,2
.LVL82:
.LBB120:
.LBB121:
.LBB122:
	.loc 3 465 0
	movw r30,r16
	ldd r20,Z+4
	ldd r21,Z+5
.LBE122:
.LBE121:
	.loc 2 211 0
	ldi r18,0
	ldi r19,0
.LVL83:
.L65:
	.loc 2 211 0 is_stmt 0 discriminator 1
	cp r18,r20
	cpc r19,r21
	breq .L78
	.loc 2 211 0 discriminator 2
/* #APP */
 ;  211 "../spi.cpp" 1
	nop
 ;  0 "" 2
/* #NOAPP */
	subi r18,-1
	sbci r19,-1
.LVL84:
	rjmp .L65
.L78:
.LVL85:
	subi r24,lo8(-(-1))
.LVL86:
.LBE120:
.LBE116:
	.loc 2 200 0 is_stmt 1
	brne .L72
.LBE115:
	.loc 2 215 0
	tst r11
	breq .L68
.LVL87:
.LBB123:
.LBB114:
	.loc 3 423 0
	ldi r20,lo8(1)
	mov r22,r28
	movw r24,r12
.LVL88:
	rcall _ZN14CircularBuffer7putByteEcb
.LVL89:
.LBE114:
.LBE123:
	.loc 2 217 0
	dec r11
.LVL90:
.L68:
	.loc 2 221 0
	inc r10
.LVL91:
	rjmp .L62
.LVL92:
.L71:
.LBE125:
.LBE126:
	.loc 2 225 0
	mov r24,r10
/* epilogue start */
	pop r29
	pop r28
	pop r17
	pop r16
.LVL93:
	pop r15
	pop r14
	pop r13
	pop r12
.LVL94:
	pop r11
.LVL95:
	pop r10
.LVL96:
	ret
	.cfi_endproc
.LFE66:
	.size	_ZN3SPI10sendMasterEh, .-_ZN3SPI10sendMasterEh
	.section	.text.__vector_14,"ax",@progbits
.global	__vector_14
	.type	__vector_14, @function
__vector_14:
.LFB68:
	.loc 2 249 0
	.cfi_startproc
	push r1
.LCFI45:
	.cfi_def_cfa_offset 3
	.cfi_offset 1, -2
	push r0
.LCFI46:
	.cfi_def_cfa_offset 4
	.cfi_offset 0, -3
	in r0,__SREG__
	push r0
	clr __zero_reg__
	push r18
.LCFI47:
	.cfi_def_cfa_offset 5
	.cfi_offset 18, -4
	push r19
.LCFI48:
	.cfi_def_cfa_offset 6
	.cfi_offset 19, -5
	push r20
.LCFI49:
	.cfi_def_cfa_offset 7
	.cfi_offset 20, -6
	push r21
.LCFI50:
	.cfi_def_cfa_offset 8
	.cfi_offset 21, -7
	push r22
.LCFI51:
	.cfi_def_cfa_offset 9
	.cfi_offset 22, -8
	push r23
.LCFI52:
	.cfi_def_cfa_offset 10
	.cfi_offset 23, -9
	push r24
.LCFI53:
	.cfi_def_cfa_offset 11
	.cfi_offset 24, -10
	push r25
.LCFI54:
	.cfi_def_cfa_offset 12
	.cfi_offset 25, -11
	push r26
.LCFI55:
	.cfi_def_cfa_offset 13
	.cfi_offset 26, -12
	push r27
.LCFI56:
	.cfi_def_cfa_offset 14
	.cfi_offset 27, -13
	push r28
.LCFI57:
	.cfi_def_cfa_offset 15
	.cfi_offset 28, -14
	push r29
.LCFI58:
	.cfi_def_cfa_offset 16
	.cfi_offset 29, -15
	push r30
.LCFI59:
	.cfi_def_cfa_offset 17
	.cfi_offset 30, -16
	push r31
.LCFI60:
	.cfi_def_cfa_offset 18
	.cfi_offset 31, -17
/* prologue: Signal */
/* frame size = 0 */
/* stack size = 17 */
.L__stack_usage = 17
.LBB138:
.LBB139:
.LBB140:
.LBB141:
	.loc 3 437 0
	lds r28,_ZN3SPI9m_spiThisE
	lds r29,_ZN3SPI9m_spiThisE+1
.LBE141:
.LBE140:
	.loc 2 232 0
	in r22,0xf
.LVL97:
.LBB142:
.LBB143:
	.loc 3 423 0
	ldi r20,lo8(1)
	movw r24,r28
	adiw r24,6
	rcall _ZN14CircularBuffer7putByteEcb
.LVL98:
.LBE143:
.LBE142:
	.loc 2 235 0
	sbi 0xe,6
.LVL99:
	.loc 2 238 0
	ldd r24,Y+2
	tst r24
	breq .L81
.LVL100:
.LBB144:
.LBB145:
	.loc 3 430 0
	movw r24,r28
	adiw r24,13
	rcall _ZN14CircularBuffer7getByteEv
.LVL101:
	rjmp .L80
.LVL102:
.L81:
.LBE145:
.LBE144:
	.loc 2 237 0
	ldi r24,lo8(-1)
.LVL103:
.L80:
	.loc 2 241 0
	out 0xf,r24
/* epilogue start */
.LBE139:
.LBE138:
	.loc 2 251 0
	pop r31
	pop r30
	pop r29
	pop r28
.LVL104:
	pop r27
	pop r26
	pop r25
	pop r24
.LVL105:
	pop r23
	pop r22
	pop r21
	pop r20
	pop r19
	pop r18
	pop r0
	out __SREG__,r0
	pop r0
	pop r1
	reti
	.cfi_endproc
.LFE68:
	.size	__vector_14, .-__vector_14
.global	_ZN3SPI9m_spiThisE
	.section	.bss._ZN3SPI9m_spiThisE,"aw",@nobits
	.type	_ZN3SPI9m_spiThisE, @object
	.size	_ZN3SPI9m_spiThisE, 2
_ZN3SPI9m_spiThisE:
	.zero	2
	.text
.Letext0:
	.file 4 "../include/h_types.h"